
CollendaProgram.elf:     file format elf32-littlenios2
CollendaProgram.elf
architecture: nios2:r1, flags 0x00000112:
EXEC_P, HAS_SYMS, D_PAGED
start address 0x00008020

Program Header:
    LOAD off    0x00001000 vaddr 0x00008000 paddr 0x00008000 align 2**12
         filesz 0x00000020 memsz 0x00000020 flags r-x
    LOAD off    0x00001020 vaddr 0x00008020 paddr 0x00008020 align 2**12
         filesz 0x000054a0 memsz 0x000054a0 flags r-x
    LOAD off    0x000064c0 vaddr 0x0000d4c0 paddr 0x0000d5b4 align 2**12
         filesz 0x000000f4 memsz 0x000000f4 flags rw-
    LOAD off    0x000066a8 vaddr 0x0000d6a8 paddr 0x0000d6a8 align 2**12
         filesz 0x00000000 memsz 0x00000018 flags rw-

Sections:
Idx Name          Size      VMA       LMA       File off  Algn
  0 .entry        00000020  00008000  00008000  00001000  2**5
                  CONTENTS, ALLOC, LOAD, READONLY, CODE
  1 .exceptions   00000000  00008020  00008020  000065b4  2**0
                  CONTENTS
  2 .text         00005364  00008020  00008020  00001020  2**2
                  CONTENTS, ALLOC, LOAD, READONLY, CODE
  3 .rodata       0000013c  0000d384  0000d384  00006384  2**2
                  CONTENTS, ALLOC, LOAD, READONLY, DATA
  4 .rwdata       000000f4  0000d4c0  0000d5b4  000064c0  2**2
                  CONTENTS, ALLOC, LOAD, DATA, SMALL_DATA
  5 .bss          00000018  0000d6a8  0000d6a8  000066a8  2**2
                  ALLOC, SMALL_DATA
  6 .onchip_memory2_0 00000000  0000d6c0  0000d6c0  000065b4  2**0
                  CONTENTS
  7 .comment      00000023  00000000  00000000  000065b4  2**0
                  CONTENTS, READONLY
  8 .debug_aranges 000005e0  00000000  00000000  000065d8  2**3
                  CONTENTS, READONLY, DEBUGGING
  9 .debug_info   00007553  00000000  00000000  00006bb8  2**0
                  CONTENTS, READONLY, DEBUGGING
 10 .debug_abbrev 00002bf8  00000000  00000000  0000e10b  2**0
                  CONTENTS, READONLY, DEBUGGING
 11 .debug_line   00003c71  00000000  00000000  00010d03  2**0
                  CONTENTS, READONLY, DEBUGGING
 12 .debug_frame  000008fc  00000000  00000000  00014974  2**2
                  CONTENTS, READONLY, DEBUGGING
 13 .debug_str    00001d28  00000000  00000000  00015270  2**0
                  CONTENTS, READONLY, DEBUGGING
 14 .debug_loc    000096a1  00000000  00000000  00016f98  2**0
                  CONTENTS, READONLY, DEBUGGING
 15 .debug_alt_sim_info 00000010  00000000  00000000  0002063c  2**2
                  CONTENTS, READONLY, DEBUGGING
 16 .debug_ranges 00000db8  00000000  00000000  00020650  2**3
                  CONTENTS, READONLY, DEBUGGING
 17 .thread_model 00000003  00000000  00000000  00022b0e  2**0
                  CONTENTS, READONLY
 18 .cpu          0000000c  00000000  00000000  00022b11  2**0
                  CONTENTS, READONLY
 19 .qsys         00000001  00000000  00000000  00022b1d  2**0
                  CONTENTS, READONLY
 20 .simulation_enabled 00000001  00000000  00000000  00022b1e  2**0
                  CONTENTS, READONLY
 21 .sysid_hash   00000004  00000000  00000000  00022b1f  2**0
                  CONTENTS, READONLY
 22 .sysid_base   00000004  00000000  00000000  00022b23  2**0
                  CONTENTS, READONLY
 23 .sysid_time   00000004  00000000  00000000  00022b27  2**0
                  CONTENTS, READONLY
 24 .stderr_dev   0000000b  00000000  00000000  00022b2b  2**0
                  CONTENTS, READONLY
 25 .stdin_dev    0000000b  00000000  00000000  00022b36  2**0
                  CONTENTS, READONLY
 26 .stdout_dev   0000000b  00000000  00000000  00022b41  2**0
                  CONTENTS, READONLY
 27 .sopc_system_name 0000000b  00000000  00000000  00022b4c  2**0
                  CONTENTS, READONLY
 28 .quartus_project_dir 00000023  00000000  00000000  00022b57  2**0
                  CONTENTS, READONLY
 29 .jdi          000053ff  00000000  00000000  00022b7a  2**0
                  CONTENTS, READONLY
 30 .sopcinfo     0004c32b  00000000  00000000  00027f79  2**0
                  CONTENTS, READONLY
SYMBOL TABLE:
00008000 l    d  .entry	00000000 .entry
00008020 l    d  .exceptions	00000000 .exceptions
00008020 l    d  .text	00000000 .text
0000d384 l    d  .rodata	00000000 .rodata
0000d4c0 l    d  .rwdata	00000000 .rwdata
0000d6a8 l    d  .bss	00000000 .bss
0000d6c0 l    d  .onchip_memory2_0	00000000 .onchip_memory2_0
00000000 l    d  .comment	00000000 .comment
00000000 l    d  .debug_aranges	00000000 .debug_aranges
00000000 l    d  .debug_info	00000000 .debug_info
00000000 l    d  .debug_abbrev	00000000 .debug_abbrev
00000000 l    d  .debug_line	00000000 .debug_line
00000000 l    d  .debug_frame	00000000 .debug_frame
00000000 l    d  .debug_str	00000000 .debug_str
00000000 l    d  .debug_loc	00000000 .debug_loc
00000000 l    d  .debug_alt_sim_info	00000000 .debug_alt_sim_info
00000000 l    d  .debug_ranges	00000000 .debug_ranges
00000000 l    df *ABS*	00000000 ../CollendaProgram_bsp//obj/HAL/src/crt0.o
00008058 l       .text	00000000 alt_after_alt_main
00000000 l    df *ABS*	00000000 hello_world_small.c
00000000 l    df *ABS*	00000000 w_pow.c
00000000 l    df *ABS*	00000000 e_pow.c
00000000 l    df *ABS*	00000000 e_sqrt.c
00000000 l    df *ABS*	00000000 s_fabs.c
00000000 l    df *ABS*	00000000 s_finite.c
00000000 l    df *ABS*	00000000 s_fpclassify.c
00000000 l    df *ABS*	00000000 s_lib_ver.c
00000000 l    df *ABS*	00000000 s_matherr.c
00000000 l    df *ABS*	00000000 s_nan.c
00000000 l    df *ABS*	00000000 s_rint.c
0000d3b0 l     O .rodata	00000010 TWO52
00000000 l    df *ABS*	00000000 s_scalbn.c
00000000 l    df *ABS*	00000000 s_copysign.c
00000000 l    df *ABS*	00000000 libgcc2.c
00000000 l    df *ABS*	00000000 adddf3.c
00000000 l    df *ABS*	00000000 divdf3.c
00000000 l    df *ABS*	00000000 eqdf2.c
00000000 l    df *ABS*	00000000 gedf2.c
00000000 l    df *ABS*	00000000 ledf2.c
00000000 l    df *ABS*	00000000 muldf3.c
00000000 l    df *ABS*	00000000 subdf3.c
00000000 l    df *ABS*	00000000 fixdfsi.c
00000000 l    df *ABS*	00000000 floatsidf.c
00000000 l    df *ABS*	00000000 floatunsidf.c
00000000 l    df *ABS*	00000000 libgcc2.c
00000000 l    df *ABS*	00000000 lib2-divmod.c
00000000 l    df *ABS*	00000000 lib2-mul.c
00000000 l    df *ABS*	00000000 libgcc2.c
00000000 l    df *ABS*	00000000 errno.c
00000000 l    df *ABS*	00000000 impure.c
0000d4c0 l     O .rwdata	000000e0 impure_data
00000000 l    df *ABS*	00000000 printf.c
00000000 l    df *ABS*	00000000 vfprintf.c
0000ca98 l     F .text	0000006c print_repeat
00000000 l    df *ABS*	00000000 fvwrite_small_dev.c
00000000 l    df *ABS*	00000000 strlen.c
00000000 l    df *ABS*	00000000 writer.c
00000000 l    df *ABS*	00000000 int_errno.c
00000000 l    df *ABS*	00000000 alt_load.c
00000000 l    df *ABS*	00000000 alt_main.c
00000000 l    df *ABS*	00000000 alt_putstr.c
00000000 l    df *ABS*	00000000 alt_write.c
00000000 l    df *ABS*	00000000 alt_sys_init.c
00000000 l    df *ABS*	00000000 altera_avalon_jtag_uart_write.c
00000000 l    df *ABS*	00000000 alt_dcache_flush_all.c
00000000 l    df *ABS*	00000000 alt_errno.c
00000000 l    df *ABS*	00000000 alt_icache_flush_all.c
00000000 l    df *ABS*	00000000 altera_nios2_gen2_irq.c
0000d258 g     F .text	0000002c alt_main
00009ab0 g     F .text	00000014 fabs
0000d5b4 g       *ABS*	00000000 __flash_rwdata_start
0000b1fc g     F .text	00000088 .hidden __eqdf2
0000ca4c g     F .text	0000004c printf
0000d284 g     F .text	00000038 alt_putstr
0000b284 g     F .text	000000dc .hidden __gtdf2
0000d37c g     F .text	00000008 altera_nios2_gen2_irq_init
0000ca00 g     F .text	00000010 __errno
00008000 g     F .entry	0000000c __reset
00008020 g       *ABS*	00000000 __flash_exceptions_start
0000d6b0 g     O .bss	00000004 errno
0000d6b8 g     O .bss	00000004 alt_argv
000155a0 g       *ABS*	00000000 _gp
0000c63c g     F .text	000000dc .hidden __floatsidf
0000b360 g     F .text	000000f4 .hidden __ltdf2
00009ae0 g     F .text	00000074 __fpclassifyd
0000ca10 g     F .text	0000003c _printf_r
00008000 g       *ABS*	00000000 __alt_mem_onchip_memory2_0
0000c91c g     F .text	00000064 .hidden __udivsi3
00009f0c g     F .text	00000074 .hidden __fixunsdfsi
00008114 g     F .text	00000100 BinaryToDec
00009f80 g     F .text	000008ac .hidden __adddf3
0000d5a0 g     O .rwdata	00000004 __fdlib_version
0000d5a4 g     O .rwdata	00000004 _global_impure_ptr
0000d6c0 g       *ABS*	00000000 __bss_end
0000c718 g     F .text	000000a8 .hidden __floatunsidf
00009b68 g     F .text	000001ec rint
0000d374 g     F .text	00000004 alt_dcache_flush_all
0000c5bc g     F .text	00000080 .hidden __fixdfsi
0000d5b4 g       *ABS*	00000000 __ram_rwdata_end
0000d2bc g     F .text	00000060 write
0000d4c0 g       *ABS*	00000000 __ram_rodata_end
0000d5ac g     O .rwdata	00000004 jtag_uart_0
0000b360 g     F .text	000000f4 .hidden __ledf2
0000c980 g     F .text	00000058 .hidden __umodsi3
0000d6c0 g       *ABS*	00000000 end
0000f530 g       *ABS*	00000000 __alt_stack_pointer
0000c7c0 g     F .text	00000064 .hidden __clzsi2
0000d340 g     F .text	00000034 altera_avalon_jtag_uart_write
0000cb04 g     F .text	0000052c ___vfprintf_internal_r
00008020 g     F .text	0000003c _start
0000d33c g     F .text	00000004 alt_sys_init
00008784 g     F .text	000010a4 __ieee754_pow
000082c0 g     F .text	000004c4 pow
0000c9d8 g     F .text	00000028 .hidden __mulsi3
0000d4c0 g       *ABS*	00000000 __ram_rwdata_start
0000d384 g       *ABS*	00000000 __ram_rodata_start
0000d6c0 g       *ABS*	00000000 __alt_stack_base
0000a82c g     F .text	000009d0 .hidden __divdf3
0000b454 g     F .text	0000086c .hidden __muldf3
0000d04c g     F .text	000000b8 __sfvwrite_small_dev
0000d6a8 g       *ABS*	00000000 __bss_start
00008214 g     F .text	000000ac main
0000d6b4 g     O .bss	00000004 alt_envp
00009b54 g     F .text	00000008 matherr
0000d5b0 g     O .rwdata	00000004 alt_errno
0000c824 g     F .text	00000084 .hidden __divsi3
000080c4 g     F .text	00000050 DecimalToBinary
00009ac4 g     F .text	0000001c finite
0000d384 g       *ABS*	00000000 __flash_rodata_start
00009ef0 g     F .text	0000001c copysign
0000b1fc g     F .text	00000088 .hidden __nedf2
0000d31c g     F .text	00000020 alt_irq_init
0000d3c0 g     O .rodata	00000100 .hidden __clz_tab
0000d120 g     F .text	00000058 _write_r
0000d5a8 g     O .rwdata	00000004 _impure_ptr
0000d6bc g     O .bss	00000004 alt_argc
00009d54 g     F .text	0000019c scalbn
00009b5c g     F .text	0000000c nan
00008020 g       *ABS*	00000000 __ram_exceptions_start
00009828 g     F .text	00000288 __ieee754_sqrt
0000d5b4 g       *ABS*	00000000 _edata
0000d6c0 g       *ABS*	00000000 _end
00008020 g       *ABS*	00000000 __ram_exceptions_end
0000d6a8 g     O .bss	00000004 currentCode
0000d6ac g     O .bss	00000004 lastCode
0000c8a8 g     F .text	00000074 .hidden __modsi3
0000f530 g       *ABS*	00000000 __alt_data_end
0000800c g       .entry	00000000 _exit
0000d104 g     F .text	0000001c strlen
0000b284 g     F .text	000000dc .hidden __gedf2
0000805c g     F .text	00000068 joinVetor
0000d378 g     F .text	00000004 alt_icache_flush_all
0000d030 g     F .text	0000001c __vfprintf_internal
0000bcc0 g     F .text	000008fc .hidden __subdf3
0000d178 g     F .text	000000e0 alt_load



Disassembly of section .entry:

00008000 <__reset>:
 * Jump to the _start entry point in the .text section if reset code
 * is allowed or if optimizing for RTL simulation.
 */
#if defined(ALT_ALLOW_CODE_AT_RESET) || defined(ALT_SIM_OPTIMIZE)
    /* Jump to the _start entry point in the .text section. */
    movhi r1, %hi(_start)
    8000:	00400034 	movhi	at,0
    ori r1, r1, %lo(_start)
    8004:	08600814 	ori	at,at,32800
    jmp r1
    8008:	0800683a 	jmp	at

0000800c <_exit>:
	...

Disassembly of section .text:

00008020 <_start>:

    /*
     * Now that the caches are initialized, set up the stack pointer and global pointer.
     * The values provided by the linker are assumed to be correctly aligned.
     */
    movhi sp, %hi(__alt_stack_pointer)
    8020:	06c00034 	movhi	sp,0
    ori sp, sp, %lo(__alt_stack_pointer)
    8024:	defd4c14 	ori	sp,sp,62768
    movhi gp, %hi(_gp)
    8028:	06800074 	movhi	gp,1
    ori gp, gp, %lo(_gp)
    802c:	d6956814 	ori	gp,gp,21920
 */
#ifndef ALT_SIM_OPTIMIZE
    /* Log that the BSS is about to be cleared. */
    ALT_LOG_PUTS(alt_log_msg_bss)

    movhi r2, %hi(__bss_start)
    8030:	00800034 	movhi	r2,0
    ori r2, r2, %lo(__bss_start)
    8034:	10b5aa14 	ori	r2,r2,54952

    movhi r3, %hi(__bss_end)
    8038:	00c00034 	movhi	r3,0
    ori r3, r3, %lo(__bss_end)
    803c:	18f5b014 	ori	r3,r3,54976

    beq r2, r3, 1f
    8040:	10c00326 	beq	r2,r3,8050 <_start+0x30>

0:
    stw zero, (r2)
    8044:	10000015 	stw	zero,0(r2)
    addi r2, r2, 4
    8048:	10800104 	addi	r2,r2,4
    bltu r2, r3, 0b
    804c:	10fffd36 	bltu	r2,r3,8044 <_start+0x24>
     * section aren't defined until alt_load() has been called).
     */
    mov   et, zero
#endif

    call alt_load
    8050:	000d1780 	call	d178 <alt_load>

    /* Log that alt_main is about to be called. */
    ALT_LOG_PUTS(alt_log_msg_alt_main)

    /* Call the C entry point. It should never return. */
    call alt_main
    8054:	000d2580 	call	d258 <alt_main>

00008058 <alt_after_alt_main>:

    /* Wait in infinite loop in case alt_main does return. */
alt_after_alt_main:
    br alt_after_alt_main
    8058:	003fff06 	br	8058 <alt_after_alt_main>

0000805c <joinVetor>:
	* vetor_3: vetor no qual a concatenacao sera realizada.
	* size_1:  valor maximo de posicoes do vetor 1
	* size_2:  valor maximo de posicoes do vetor 2
*/
void joinVetor(int vetor_1[], int vetor_2[], int vetor_3[], int size_1, int size_2)
{
    805c:	da000017 	ldw	r8,0(sp)
    8060:	3007883a 	mov	r3,r6
	//Variavel de posicao do vetor que armazena o valor da concatenacao.
	int i = 0;
	//Loop para copiar o primeiro vetor.
	for (i = 0; i < size_1; i++)
    8064:	0005883a 	mov	r2,zero
    8068:	11c0060e 	bge	r2,r7,8084 <joinVetor+0x28>
	{
		vetor_3[i] = vetor_1[i];
    806c:	22400017 	ldw	r9,0(r4)
void joinVetor(int vetor_1[], int vetor_2[], int vetor_3[], int size_1, int size_2)
{
	//Variavel de posicao do vetor que armazena o valor da concatenacao.
	int i = 0;
	//Loop para copiar o primeiro vetor.
	for (i = 0; i < size_1; i++)
    8070:	10800044 	addi	r2,r2,1
    8074:	21000104 	addi	r4,r4,4
	{
		vetor_3[i] = vetor_1[i];
    8078:	1a400015 	stw	r9,0(r3)
    807c:	18c00104 	addi	r3,r3,4
    8080:	003ff906 	br	8068 <joinVetor+0xc>
    8084:	3800010e 	bge	r7,zero,808c <joinVetor+0x30>
    8088:	000f883a 	mov	r7,zero
    808c:	39cf883a 	add	r7,r7,r7
    8090:	39cf883a 	add	r7,r7,r7
void joinVetor(int vetor_1[], int vetor_2[], int vetor_3[], int size_1, int size_2)
{
	//Variavel de posicao do vetor que armazena o valor da concatenacao.
	int i = 0;
	//Loop para copiar o primeiro vetor.
	for (i = 0; i < size_1; i++)
    8094:	0007883a 	mov	r3,zero
	{
		vetor_3[i] = vetor_1[i];
	}

	//Loop para copiar o segundo vetor.
	for (int index = 0; index < size_2; index++)
    8098:	1a00090e 	bge	r3,r8,80c0 <joinVetor+0x64>
	{
		vetor_3[i] = vetor_2[index];
    809c:	18c5883a 	add	r2,r3,r3
    80a0:	29000017 	ldw	r4,0(r5)
    80a4:	1085883a 	add	r2,r2,r2
    80a8:	11c5883a 	add	r2,r2,r7
    80ac:	3085883a 	add	r2,r6,r2
    80b0:	11000015 	stw	r4,0(r2)
	{
		vetor_3[i] = vetor_1[i];
	}

	//Loop para copiar o segundo vetor.
	for (int index = 0; index < size_2; index++)
    80b4:	18c00044 	addi	r3,r3,1
    80b8:	29400104 	addi	r5,r5,4
    80bc:	003ff606 	br	8098 <joinVetor+0x3c>
	{
		vetor_3[i] = vetor_2[index];
		i++;
	}
}
    80c0:	f800283a 	ret

000080c4 <DecimalToBinary>:
PARAMETROS:
	* number: valor a ser convertido
	* values: vetor no qual os valores de 0 e 1 serao inseridos
*/
void DecimalToBinary(int number, int values[])
{
    80c4:	28c00904 	addi	r3,r5,36
	int index = 9;
    80c8:	00800244 	movi	r2,9
	while(number > 0)
	{
		values[index] = number % 2;
		number = number/2;
		if(number == 0 || number == 1)
    80cc:	01800044 	movi	r6,1
	* values: vetor no qual os valores de 0 e 1 serao inseridos
*/
void DecimalToBinary(int number, int values[])
{
	int index = 9;
	while(number > 0)
    80d0:	01000f0e 	bge	zero,r4,8110 <DecimalToBinary+0x4c>
	{
		values[index] = number % 2;
    80d4:	21c0004c 	andi	r7,r4,1
		number = number/2;
    80d8:	2009d07a 	srai	r4,r4,1
void DecimalToBinary(int number, int values[])
{
	int index = 9;
	while(number > 0)
	{
		values[index] = number % 2;
    80dc:	19c00015 	stw	r7,0(r3)
    80e0:	18ffff04 	addi	r3,r3,-4
		number = number/2;
		if(number == 0 || number == 1)
    80e4:	31000816 	blt	r6,r4,8108 <DecimalToBinary+0x44>
		{
			values[index - 1] = number;
    80e8:	00d00034 	movhi	r3,16384
    80ec:	18ffffc4 	addi	r3,r3,-1
    80f0:	10c5883a 	add	r2,r2,r3
    80f4:	1085883a 	add	r2,r2,r2
    80f8:	1085883a 	add	r2,r2,r2
    80fc:	288b883a 	add	r5,r5,r2
    8100:	29000015 	stw	r4,0(r5)
			break;
    8104:	f800283a 	ret
		}
		index--;
    8108:	10bfffc4 	addi	r2,r2,-1
    810c:	003ff006 	br	80d0 <DecimalToBinary+0xc>
    8110:	f800283a 	ret

00008114 <BinaryToDec>:
	}
}

unsigned long BinaryToDec(int valueBin[], int sizeBin){
    8114:	defff804 	addi	sp,sp,-32
    8118:	dc000015 	stw	r16,0(sp)
    811c:	2c3fffc4 	addi	r16,r5,-1
    8120:	8421883a 	add	r16,r16,r16
    8124:	dc800215 	stw	r18,8(sp)
    8128:	8421883a 	add	r16,r16,r16
    812c:	dfc00715 	stw	ra,28(sp)
    8130:	dd800615 	stw	r22,24(sp)
    8134:	dd400515 	stw	r21,20(sp)
    8138:	dd000415 	stw	r20,16(sp)
    813c:	dcc00315 	stw	r19,12(sp)
    8140:	dc400115 	stw	r17,4(sp)
    8144:	2421883a 	add	r16,r4,r16
    unsigned long dec = 0;
    8148:	0025883a 	mov	r18,zero
    int i = 0;
    int s;
    s = sizeBin;
    while( s-- ) {
    814c:	28002626 	beq	r5,zero,81e8 <BinaryToDec+0xd4>
    8150:	2823883a 	mov	r17,r5
    8154:	0009883a 	mov	r4,zero
        if( valueBin[s] == 0 || valueBin[s] == 1 ) {
    8158:	04c00044 	movi	r19,1
    815c:	80800017 	ldw	r2,0(r16)
    8160:	98801e36 	bltu	r19,r2,81dc <BinaryToDec+0xc8>
            dec = dec + pow(2, i++) * (valueBin[s] - 0);
    8164:	25000044 	addi	r20,r4,1
    8168:	000c63c0 	call	c63c <__floatsidf>
    816c:	100d883a 	mov	r6,r2
    8170:	180f883a 	mov	r7,r3
    8174:	01500034 	movhi	r5,16384
    8178:	0009883a 	mov	r4,zero
    817c:	00082c00 	call	82c0 <pow>
    8180:	81000017 	ldw	r4,0(r16)
    8184:	102d883a 	mov	r22,r2
    8188:	182b883a 	mov	r21,r3
    818c:	000c63c0 	call	c63c <__floatsidf>
    8190:	b00d883a 	mov	r6,r22
    8194:	a80f883a 	mov	r7,r21
    8198:	180b883a 	mov	r5,r3
    819c:	1009883a 	mov	r4,r2
    81a0:	000b4540 	call	b454 <__muldf3>
    81a4:	9009883a 	mov	r4,r18
    81a8:	102d883a 	mov	r22,r2
    81ac:	182b883a 	mov	r21,r3
    81b0:	000c7180 	call	c718 <__floatunsidf>
    81b4:	100d883a 	mov	r6,r2
    81b8:	180f883a 	mov	r7,r3
    81bc:	b009883a 	mov	r4,r22
    81c0:	a80b883a 	mov	r5,r21
    81c4:	0009f800 	call	9f80 <__adddf3>
    81c8:	1009883a 	mov	r4,r2
    81cc:	180b883a 	mov	r5,r3
    81d0:	0009f0c0 	call	9f0c <__fixunsdfsi>
    81d4:	1025883a 	mov	r18,r2
    81d8:	a009883a 	mov	r4,r20
    81dc:	8c7fffc4 	addi	r17,r17,-1
    81e0:	843fff04 	addi	r16,r16,-4
        }
        if(s == 0){
    81e4:	883fdd1e 	bne	r17,zero,815c <BinaryToDec+0x48>
        	break;
        }
    };

    return dec;
}
    81e8:	9005883a 	mov	r2,r18
    81ec:	dfc00717 	ldw	ra,28(sp)
    81f0:	dd800617 	ldw	r22,24(sp)
    81f4:	dd400517 	ldw	r21,20(sp)
    81f8:	dd000417 	ldw	r20,16(sp)
    81fc:	dcc00317 	ldw	r19,12(sp)
    8200:	dc800217 	ldw	r18,8(sp)
    8204:	dc400117 	ldw	r17,4(sp)
    8208:	dc000017 	ldw	r16,0(sp)
    820c:	dec00804 	addi	sp,sp,32
    8210:	f800283a 	ret

00008214 <main>:

int lastCode    = 0;
int currentCode = 0;

int main()
{ 
    8214:	defffa04 	addi	sp,sp,-24
	alt_putstr("Hello From Collenda!\n");
    8218:	01000074 	movhi	r4,1

int lastCode    = 0;
int currentCode = 0;

int main()
{ 
    821c:	dcc00315 	stw	r19,12(sp)
    8220:	dc800215 	stw	r18,8(sp)
    8224:	dc400115 	stw	r17,4(sp)
	alt_putstr("Hello From Collenda!\n");
    8228:	2134e104 	addi	r4,r4,-11388
	int contagem = 0;
	int index = 0;
	while (1)
	{
		//leitura dos dip switches para mundaca do background da tela 
		escolhaDaCor = IORD(SWITCH_BASE,0);
    822c:	04800074 	movhi	r18,1
			
			//conversao do codigo binario da instrucao em um valor decimal
			//result = BinaryToDec(instruction, 32);
			/*------------------------------------------------------------------------------------------*/
			/*---------Atualizacao da coordenada do sprite em uso---------*/
			if( IORD(PRINTTING_BASE,0) == 0) 
    8230:	04c00074 	movhi	r19,1
			{
				IOWR_ALTERA_AVALON_PIO_DATA(DATA_A_BASE,DATA_A_COLOR);
    8234:	04400234 	movhi	r17,8

int lastCode    = 0;
int currentCode = 0;

int main()
{ 
    8238:	dfc00515 	stw	ra,20(sp)
    823c:	dd000415 	stw	r20,16(sp)
    8240:	dc000015 	stw	r16,0(sp)
	int contagem = 0;
	int index = 0;
	while (1)
	{
		//leitura dos dip switches para mundaca do background da tela 
		escolhaDaCor = IORD(SWITCH_BASE,0);
    8244:	94841c04 	addi	r18,r18,4208
int lastCode    = 0;
int currentCode = 0;

int main()
{ 
	alt_putstr("Hello From Collenda!\n");
    8248:	000d2840 	call	d284 <alt_putstr>
			
			//conversao do codigo binario da instrucao em um valor decimal
			//result = BinaryToDec(instruction, 32);
			/*------------------------------------------------------------------------------------------*/
			/*---------Atualizacao da coordenada do sprite em uso---------*/
			if( IORD(PRINTTING_BASE,0) == 0) 
    824c:	9cc41004 	addi	r19,r19,4160
			{
				IOWR_ALTERA_AVALON_PIO_DATA(DATA_A_BASE,DATA_A_COLOR);
    8250:	8c7ffc44 	addi	r17,r17,-15
	{
		//leitura dos dip switches para mundaca do background da tela 
		escolhaDaCor = IORD(SWITCH_BASE,0);
		printf("corlor: %d\n",  escolhaDaCor);
		/*----------Definicao da cor de background------------------*/
		switch(escolhaDaCor)
    8254:	05000044 	movi	r20,1
	int contagem = 0;
	int index = 0;
	while (1)
	{
		//leitura dos dip switches para mundaca do background da tela 
		escolhaDaCor = IORD(SWITCH_BASE,0);
    8258:	94000037 	ldwio	r16,0(r18)
		printf("corlor: %d\n",  escolhaDaCor);
    825c:	01000074 	movhi	r4,1
    8260:	800b883a 	mov	r5,r16
    8264:	2134e704 	addi	r4,r4,-11364
    8268:	000ca4c0 	call	ca4c <printf>
		/*----------Definicao da cor de background------------------*/
		switch(escolhaDaCor)
    826c:	80000516 	blt	r16,zero,8284 <main+0x70>
    8270:	a400060e 	bge	r20,r16,828c <main+0x78>
    8274:	00800084 	movi	r2,2
    8278:	8080021e 	bne	r16,r2,8284 <main+0x70>
				break;
			case 1:
				color = 0x40000155;
				break;
			case 2:
				color = 0x400001d7;
    827c:	00bff5c4 	movi	r2,-41
    8280:	00000306 	br	8290 <main+0x7c>
				break;
			default:
				color = 0x40000000;
    8284:	0005883a 	mov	r2,zero
				break;
    8288:	00000106 	br	8290 <main+0x7c>
		printf("corlor: %d\n",  escolhaDaCor);
		/*----------Definicao da cor de background------------------*/
		switch(escolhaDaCor)
		{
			case 0:
				color = 0x40000155;
    828c:	00801544 	movi	r2,85
			
			//conversao do codigo binario da instrucao em um valor decimal
			//result = BinaryToDec(instruction, 32);
			/*------------------------------------------------------------------------------------------*/
			/*---------Atualizacao da coordenada do sprite em uso---------*/
			if( IORD(PRINTTING_BASE,0) == 0) 
    8290:	98c00037 	ldwio	r3,0(r19)
    8294:	183ff01e 	bne	r3,zero,8258 <main+0x44>
			{
				IOWR_ALTERA_AVALON_PIO_DATA(DATA_A_BASE,DATA_A_COLOR);
    8298:	00c00074 	movhi	r3,1
    829c:	18c41804 	addi	r3,r3,4192
    82a0:	1c400035 	stwio	r17,0(r3)
				IOWR_ALTERA_AVALON_PIO_DATA(DATA_B_BASE,color);
    82a4:	10803fcc 	andi	r2,r2,255
    82a8:	1080201c 	xori	r2,r2,128
    82ac:	00c00074 	movhi	r3,1
    82b0:	10bfe004 	addi	r2,r2,-128
    82b4:	18c41404 	addi	r3,r3,4176
    82b8:	18800035 	stwio	r2,0(r3)
    82bc:	003fe506 	br	8254 <main+0x40>

000082c0 <pow>:
    82c0:	deffee04 	addi	sp,sp,-72
    82c4:	dc800b15 	stw	r18,44(sp)
    82c8:	04800074 	movhi	r18,1
    82cc:	ddc01015 	stw	r23,64(sp)
    82d0:	dd800f15 	stw	r22,60(sp)
    82d4:	dd400e15 	stw	r21,56(sp)
    82d8:	dd000d15 	stw	r20,52(sp)
    82dc:	dcc00c15 	stw	r19,48(sp)
    82e0:	dc400a15 	stw	r17,40(sp)
    82e4:	dc000915 	stw	r16,36(sp)
    82e8:	dfc01115 	stw	ra,68(sp)
    82ec:	94b56804 	addi	r18,r18,-10848
    82f0:	202f883a 	mov	r23,r4
    82f4:	282d883a 	mov	r22,r5
    82f8:	302b883a 	mov	r21,r6
    82fc:	3829883a 	mov	r20,r7
    8300:	00087840 	call	8784 <__ieee754_pow>
    8304:	1023883a 	mov	r17,r2
    8308:	90800017 	ldw	r2,0(r18)
    830c:	04ffffc4 	movi	r19,-1
    8310:	1821883a 	mov	r16,r3
    8314:	14c00426 	beq	r2,r19,8328 <pow+0x68>
    8318:	a809883a 	mov	r4,r21
    831c:	a00b883a 	mov	r5,r20
    8320:	0009ae00 	call	9ae0 <__fpclassifyd>
    8324:	10000d1e 	bne	r2,zero,835c <pow+0x9c>
    8328:	8805883a 	mov	r2,r17
    832c:	8007883a 	mov	r3,r16
    8330:	dfc01117 	ldw	ra,68(sp)
    8334:	ddc01017 	ldw	r23,64(sp)
    8338:	dd800f17 	ldw	r22,60(sp)
    833c:	dd400e17 	ldw	r21,56(sp)
    8340:	dd000d17 	ldw	r20,52(sp)
    8344:	dcc00c17 	ldw	r19,48(sp)
    8348:	dc800b17 	ldw	r18,44(sp)
    834c:	dc400a17 	ldw	r17,40(sp)
    8350:	dc000917 	ldw	r16,36(sp)
    8354:	dec01204 	addi	sp,sp,72
    8358:	f800283a 	ret
    835c:	b809883a 	mov	r4,r23
    8360:	b00b883a 	mov	r5,r22
    8364:	0009ae00 	call	9ae0 <__fpclassifyd>
    8368:	000d883a 	mov	r6,zero
    836c:	000f883a 	mov	r7,zero
    8370:	1000201e 	bne	r2,zero,83f4 <pow+0x134>
    8374:	a809883a 	mov	r4,r21
    8378:	a00b883a 	mov	r5,r20
    837c:	000b1fc0 	call	b1fc <__eqdf2>
    8380:	103fe91e 	bne	r2,zero,8328 <pow+0x68>
    8384:	01000044 	movi	r4,1
    8388:	d9000015 	stw	r4,0(sp)
    838c:	90800017 	ldw	r2,0(r18)
    8390:	01000074 	movhi	r4,1
    8394:	00cffc34 	movhi	r3,16368
    8398:	2134ea04 	addi	r4,r4,-11352
    839c:	d9000115 	stw	r4,4(sp)
    83a0:	d8000815 	stw	zero,32(sp)
    83a4:	ddc00215 	stw	r23,8(sp)
    83a8:	dd800315 	stw	r22,12(sp)
    83ac:	dd400415 	stw	r21,16(sp)
    83b0:	dd000515 	stw	r20,20(sp)
    83b4:	d8000615 	stw	zero,24(sp)
    83b8:	d8c00715 	stw	r3,28(sp)
    83bc:	14c02826 	beq	r2,r19,8460 <pow+0x1a0>
    83c0:	01000084 	movi	r4,2
    83c4:	11002626 	beq	r2,r4,8460 <pow+0x1a0>
    83c8:	d809883a 	mov	r4,sp
    83cc:	0009b540 	call	9b54 <matherr>
    83d0:	10006b26 	beq	r2,zero,8580 <pow+0x2c0>
    83d4:	d8800817 	ldw	r2,32(sp)
    83d8:	10000326 	beq	r2,zero,83e8 <pow+0x128>
    83dc:	000ca000 	call	ca00 <__errno>
    83e0:	d8c00817 	ldw	r3,32(sp)
    83e4:	10c00015 	stw	r3,0(r2)
    83e8:	d8800617 	ldw	r2,24(sp)
    83ec:	d8c00717 	ldw	r3,28(sp)
    83f0:	003fcf06 	br	8330 <pow+0x70>
    83f4:	b809883a 	mov	r4,r23
    83f8:	b00b883a 	mov	r5,r22
    83fc:	000b1fc0 	call	b1fc <__eqdf2>
    8400:	1000191e 	bne	r2,zero,8468 <pow+0x1a8>
    8404:	000d883a 	mov	r6,zero
    8408:	000f883a 	mov	r7,zero
    840c:	a809883a 	mov	r4,r21
    8410:	a00b883a 	mov	r5,r20
    8414:	000b1fc0 	call	b1fc <__eqdf2>
    8418:	10003a1e 	bne	r2,zero,8504 <pow+0x244>
    841c:	00c00044 	movi	r3,1
    8420:	d8c00015 	stw	r3,0(sp)
    8424:	90800017 	ldw	r2,0(r18)
    8428:	00c00074 	movhi	r3,1
    842c:	18f4ea04 	addi	r3,r3,-11352
    8430:	d8c00115 	stw	r3,4(sp)
    8434:	d8000815 	stw	zero,32(sp)
    8438:	ddc00215 	stw	r23,8(sp)
    843c:	dd800315 	stw	r22,12(sp)
    8440:	dd400415 	stw	r21,16(sp)
    8444:	dd000515 	stw	r20,20(sp)
    8448:	d8000615 	stw	zero,24(sp)
    844c:	d8000715 	stw	zero,28(sp)
    8450:	103fdd26 	beq	r2,zero,83c8 <pow+0x108>
    8454:	0005883a 	mov	r2,zero
    8458:	00cffc34 	movhi	r3,16368
    845c:	003fb406 	br	8330 <pow+0x70>
    8460:	0005883a 	mov	r2,zero
    8464:	003fb206 	br	8330 <pow+0x70>
    8468:	8809883a 	mov	r4,r17
    846c:	800b883a 	mov	r5,r16
    8470:	0009ac40 	call	9ac4 <finite>
    8474:	10004626 	beq	r2,zero,8590 <pow+0x2d0>
    8478:	000d883a 	mov	r6,zero
    847c:	000f883a 	mov	r7,zero
    8480:	8809883a 	mov	r4,r17
    8484:	800b883a 	mov	r5,r16
    8488:	000b1fc0 	call	b1fc <__eqdf2>
    848c:	103fa61e 	bne	r2,zero,8328 <pow+0x68>
    8490:	b809883a 	mov	r4,r23
    8494:	b00b883a 	mov	r5,r22
    8498:	0009ac40 	call	9ac4 <finite>
    849c:	103fa226 	beq	r2,zero,8328 <pow+0x68>
    84a0:	a809883a 	mov	r4,r21
    84a4:	a00b883a 	mov	r5,r20
    84a8:	0009ac40 	call	9ac4 <finite>
    84ac:	103f9e26 	beq	r2,zero,8328 <pow+0x68>
    84b0:	00800104 	movi	r2,4
    84b4:	d8800015 	stw	r2,0(sp)
    84b8:	90c00017 	ldw	r3,0(r18)
    84bc:	00800074 	movhi	r2,1
    84c0:	10b4ea04 	addi	r2,r2,-11352
    84c4:	d8800115 	stw	r2,4(sp)
    84c8:	d8000815 	stw	zero,32(sp)
    84cc:	ddc00215 	stw	r23,8(sp)
    84d0:	dd800315 	stw	r22,12(sp)
    84d4:	dd400415 	stw	r21,16(sp)
    84d8:	dd000515 	stw	r20,20(sp)
    84dc:	d8000615 	stw	zero,24(sp)
    84e0:	d8000715 	stw	zero,28(sp)
    84e4:	00800084 	movi	r2,2
    84e8:	18804726 	beq	r3,r2,8608 <pow+0x348>
    84ec:	d809883a 	mov	r4,sp
    84f0:	0009b540 	call	9b54 <matherr>
    84f4:	10004426 	beq	r2,zero,8608 <pow+0x348>
    84f8:	d8800817 	ldw	r2,32(sp)
    84fc:	103fba26 	beq	r2,zero,83e8 <pow+0x128>
    8500:	003fb606 	br	83dc <pow+0x11c>
    8504:	a809883a 	mov	r4,r21
    8508:	a00b883a 	mov	r5,r20
    850c:	0009ac40 	call	9ac4 <finite>
    8510:	103f8526 	beq	r2,zero,8328 <pow+0x68>
    8514:	000d883a 	mov	r6,zero
    8518:	000f883a 	mov	r7,zero
    851c:	a809883a 	mov	r4,r21
    8520:	a00b883a 	mov	r5,r20
    8524:	000b3600 	call	b360 <__ledf2>
    8528:	103f7f0e 	bge	r2,zero,8328 <pow+0x68>
    852c:	00c00044 	movi	r3,1
    8530:	d8c00015 	stw	r3,0(sp)
    8534:	90800017 	ldw	r2,0(r18)
    8538:	00c00074 	movhi	r3,1
    853c:	18f4ea04 	addi	r3,r3,-11352
    8540:	d8c00115 	stw	r3,4(sp)
    8544:	d8000815 	stw	zero,32(sp)
    8548:	ddc00215 	stw	r23,8(sp)
    854c:	dd800315 	stw	r22,12(sp)
    8550:	dd400415 	stw	r21,16(sp)
    8554:	dd000515 	stw	r20,20(sp)
    8558:	d8000615 	stw	zero,24(sp)
    855c:	10002526 	beq	r2,zero,85f4 <pow+0x334>
    8560:	00fffc34 	movhi	r3,65520
    8564:	d8c00715 	stw	r3,28(sp)
    8568:	00c00084 	movi	r3,2
    856c:	10c0221e 	bne	r2,r3,85f8 <pow+0x338>
    8570:	000ca000 	call	ca00 <__errno>
    8574:	00c00844 	movi	r3,33
    8578:	10c00015 	stw	r3,0(r2)
    857c:	003fde06 	br	84f8 <pow+0x238>
    8580:	000ca000 	call	ca00 <__errno>
    8584:	00c00844 	movi	r3,33
    8588:	10c00015 	stw	r3,0(r2)
    858c:	003f9106 	br	83d4 <pow+0x114>
    8590:	b809883a 	mov	r4,r23
    8594:	b00b883a 	mov	r5,r22
    8598:	0009ac40 	call	9ac4 <finite>
    859c:	103fb626 	beq	r2,zero,8478 <pow+0x1b8>
    85a0:	a809883a 	mov	r4,r21
    85a4:	a00b883a 	mov	r5,r20
    85a8:	0009ac40 	call	9ac4 <finite>
    85ac:	103fb226 	beq	r2,zero,8478 <pow+0x1b8>
    85b0:	8809883a 	mov	r4,r17
    85b4:	800b883a 	mov	r5,r16
    85b8:	0009ae00 	call	9ae0 <__fpclassifyd>
    85bc:	1000161e 	bne	r2,zero,8618 <pow+0x358>
    85c0:	00800044 	movi	r2,1
    85c4:	d8800015 	stw	r2,0(sp)
    85c8:	94000017 	ldw	r16,0(r18)
    85cc:	00800074 	movhi	r2,1
    85d0:	10b4ea04 	addi	r2,r2,-11352
    85d4:	d8800115 	stw	r2,4(sp)
    85d8:	d8000815 	stw	zero,32(sp)
    85dc:	ddc00215 	stw	r23,8(sp)
    85e0:	dd800315 	stw	r22,12(sp)
    85e4:	dd400415 	stw	r21,16(sp)
    85e8:	dd000515 	stw	r20,20(sp)
    85ec:	8000281e 	bne	r16,zero,8690 <pow+0x3d0>
    85f0:	d8000615 	stw	zero,24(sp)
    85f4:	d8000715 	stw	zero,28(sp)
    85f8:	d809883a 	mov	r4,sp
    85fc:	0009b540 	call	9b54 <matherr>
    8600:	103fbd1e 	bne	r2,zero,84f8 <pow+0x238>
    8604:	003fda06 	br	8570 <pow+0x2b0>
    8608:	000ca000 	call	ca00 <__errno>
    860c:	00c00884 	movi	r3,34
    8610:	10c00015 	stw	r3,0(r2)
    8614:	003fb806 	br	84f8 <pow+0x238>
    8618:	00c000c4 	movi	r3,3
    861c:	d8c00015 	stw	r3,0(sp)
    8620:	90800017 	ldw	r2,0(r18)
    8624:	00c00074 	movhi	r3,1
    8628:	18f4ea04 	addi	r3,r3,-11352
    862c:	d8c00115 	stw	r3,4(sp)
    8630:	d8000815 	stw	zero,32(sp)
    8634:	ddc00215 	stw	r23,8(sp)
    8638:	dd800315 	stw	r22,12(sp)
    863c:	dd400415 	stw	r21,16(sp)
    8640:	dd000515 	stw	r20,20(sp)
    8644:	000d883a 	mov	r6,zero
    8648:	000f883a 	mov	r7,zero
    864c:	b809883a 	mov	r4,r23
    8650:	b00b883a 	mov	r5,r22
    8654:	1000181e 	bne	r2,zero,86b8 <pow+0x3f8>
    8658:	00b80034 	movhi	r2,57344
    865c:	d8800615 	stw	r2,24(sp)
    8660:	0091fc34 	movhi	r2,18416
    8664:	10bfffc4 	addi	r2,r2,-1
    8668:	d8800715 	stw	r2,28(sp)
    866c:	000b3600 	call	b360 <__ledf2>
    8670:	10001a16 	blt	r2,zero,86dc <pow+0x41c>
    8674:	d809883a 	mov	r4,sp
    8678:	0009b540 	call	9b54 <matherr>
    867c:	103f551e 	bne	r2,zero,83d4 <pow+0x114>
    8680:	000ca000 	call	ca00 <__errno>
    8684:	00c00884 	movi	r3,34
    8688:	10c00015 	stw	r3,0(r2)
    868c:	003f5106 	br	83d4 <pow+0x114>
    8690:	000d883a 	mov	r6,zero
    8694:	000f883a 	mov	r7,zero
    8698:	0009883a 	mov	r4,zero
    869c:	000b883a 	mov	r5,zero
    86a0:	000a82c0 	call	a82c <__divdf3>
    86a4:	d8800615 	stw	r2,24(sp)
    86a8:	d8c00715 	stw	r3,28(sp)
    86ac:	00800084 	movi	r2,2
    86b0:	80bfaf26 	beq	r16,r2,8570 <pow+0x2b0>
    86b4:	003fd006 	br	85f8 <pow+0x338>
    86b8:	009ffc34 	movhi	r2,32752
    86bc:	d8000615 	stw	zero,24(sp)
    86c0:	d8800715 	stw	r2,28(sp)
    86c4:	000b3600 	call	b360 <__ledf2>
    86c8:	10001a16 	blt	r2,zero,8734 <pow+0x474>
    86cc:	90c00017 	ldw	r3,0(r18)
    86d0:	00800084 	movi	r2,2
    86d4:	18bfe71e 	bne	r3,r2,8674 <pow+0x3b4>
    86d8:	003fe906 	br	8680 <pow+0x3c0>
    86dc:	000d883a 	mov	r6,zero
    86e0:	01cff834 	movhi	r7,16352
    86e4:	a809883a 	mov	r4,r21
    86e8:	a00b883a 	mov	r5,r20
    86ec:	000b4540 	call	b454 <__muldf3>
    86f0:	1009883a 	mov	r4,r2
    86f4:	180b883a 	mov	r5,r3
    86f8:	1023883a 	mov	r17,r2
    86fc:	1821883a 	mov	r16,r3
    8700:	0009b680 	call	9b68 <rint>
    8704:	100d883a 	mov	r6,r2
    8708:	180f883a 	mov	r7,r3
    870c:	8809883a 	mov	r4,r17
    8710:	800b883a 	mov	r5,r16
    8714:	000b1fc0 	call	b1fc <__eqdf2>
    8718:	103fec26 	beq	r2,zero,86cc <pow+0x40c>
    871c:	00b80034 	movhi	r2,57344
    8720:	d8800615 	stw	r2,24(sp)
    8724:	00b1fc34 	movhi	r2,51184
    8728:	10bfffc4 	addi	r2,r2,-1
    872c:	d8800715 	stw	r2,28(sp)
    8730:	003fe606 	br	86cc <pow+0x40c>
    8734:	000d883a 	mov	r6,zero
    8738:	01cff834 	movhi	r7,16352
    873c:	a809883a 	mov	r4,r21
    8740:	a00b883a 	mov	r5,r20
    8744:	000b4540 	call	b454 <__muldf3>
    8748:	1009883a 	mov	r4,r2
    874c:	180b883a 	mov	r5,r3
    8750:	1023883a 	mov	r17,r2
    8754:	1821883a 	mov	r16,r3
    8758:	0009b680 	call	9b68 <rint>
    875c:	100d883a 	mov	r6,r2
    8760:	180f883a 	mov	r7,r3
    8764:	8809883a 	mov	r4,r17
    8768:	800b883a 	mov	r5,r16
    876c:	000b1fc0 	call	b1fc <__eqdf2>
    8770:	103fd626 	beq	r2,zero,86cc <pow+0x40c>
    8774:	00bffc34 	movhi	r2,65520
    8778:	d8000615 	stw	zero,24(sp)
    877c:	d8800715 	stw	r2,28(sp)
    8780:	003fd206 	br	86cc <pow+0x40c>

00008784 <__ieee754_pow>:
    8784:	00a00034 	movhi	r2,32768
    8788:	deffea04 	addi	sp,sp,-88
    878c:	10bfffc4 	addi	r2,r2,-1
    8790:	dc800e15 	stw	r18,56(sp)
    8794:	38a4703a 	and	r18,r7,r2
    8798:	dfc01515 	stw	ra,84(sp)
    879c:	df001415 	stw	fp,80(sp)
    87a0:	ddc01315 	stw	r23,76(sp)
    87a4:	dd801215 	stw	r22,72(sp)
    87a8:	dd401115 	stw	r21,68(sp)
    87ac:	dd001015 	stw	r20,64(sp)
    87b0:	dcc00f15 	stw	r19,60(sp)
    87b4:	dc400d15 	stw	r17,52(sp)
    87b8:	dc000c15 	stw	r16,48(sp)
    87bc:	9186b03a 	or	r3,r18,r6
    87c0:	18002a26 	beq	r3,zero,886c <__ieee754_pow+0xe8>
    87c4:	28a2703a 	and	r17,r5,r2
    87c8:	009ffc34 	movhi	r2,32752
    87cc:	14402316 	blt	r2,r17,885c <__ieee754_pow+0xd8>
    87d0:	88802126 	beq	r17,r2,8858 <__ieee754_pow+0xd4>
    87d4:	14802116 	blt	r2,r18,885c <__ieee754_pow+0xd8>
    87d8:	009ffc34 	movhi	r2,32752
    87dc:	90807326 	beq	r18,r2,89ac <__ieee754_pow+0x228>
    87e0:	2827883a 	mov	r19,r5
    87e4:	2021883a 	mov	r16,r4
    87e8:	302d883a 	mov	r22,r6
    87ec:	3839883a 	mov	fp,r7
    87f0:	28007016 	blt	r5,zero,89b4 <__ieee754_pow+0x230>
    87f4:	002b883a 	mov	r21,zero
    87f8:	b0003a1e 	bne	r22,zero,88e4 <__ieee754_pow+0x160>
    87fc:	009ffc34 	movhi	r2,32752
    8800:	90807f26 	beq	r18,r2,8a00 <__ieee754_pow+0x27c>
    8804:	008ffc34 	movhi	r2,16368
    8808:	90805426 	beq	r18,r2,895c <__ieee754_pow+0x1d8>
    880c:	00900034 	movhi	r2,16384
    8810:	e0833b26 	beq	fp,r2,9500 <__ieee754_pow+0xd7c>
    8814:	008ff834 	movhi	r2,16352
    8818:	e080321e 	bne	fp,r2,88e4 <__ieee754_pow+0x160>
    881c:	98003116 	blt	r19,zero,88e4 <__ieee754_pow+0x160>
    8820:	8009883a 	mov	r4,r16
    8824:	980b883a 	mov	r5,r19
    8828:	dfc01517 	ldw	ra,84(sp)
    882c:	df001417 	ldw	fp,80(sp)
    8830:	ddc01317 	ldw	r23,76(sp)
    8834:	dd801217 	ldw	r22,72(sp)
    8838:	dd401117 	ldw	r21,68(sp)
    883c:	dd001017 	ldw	r20,64(sp)
    8840:	dcc00f17 	ldw	r19,60(sp)
    8844:	dc800e17 	ldw	r18,56(sp)
    8848:	dc400d17 	ldw	r17,52(sp)
    884c:	dc000c17 	ldw	r16,48(sp)
    8850:	dec01604 	addi	sp,sp,88
    8854:	00098281 	jmpi	9828 <__ieee754_sqrt>
    8858:	20001226 	beq	r4,zero,88a4 <__ieee754_pow+0x120>
    885c:	00b00434 	movhi	r2,49168
    8860:	8885883a 	add	r2,r17,r2
    8864:	1108b03a 	or	r4,r2,r4
    8868:	20000f1e 	bne	r4,zero,88a8 <__ieee754_pow+0x124>
    886c:	0005883a 	mov	r2,zero
    8870:	00cffc34 	movhi	r3,16368
    8874:	dfc01517 	ldw	ra,84(sp)
    8878:	df001417 	ldw	fp,80(sp)
    887c:	ddc01317 	ldw	r23,76(sp)
    8880:	dd801217 	ldw	r22,72(sp)
    8884:	dd401117 	ldw	r21,68(sp)
    8888:	dd001017 	ldw	r20,64(sp)
    888c:	dcc00f17 	ldw	r19,60(sp)
    8890:	dc800e17 	ldw	r18,56(sp)
    8894:	dc400d17 	ldw	r17,52(sp)
    8898:	dc000c17 	ldw	r16,48(sp)
    889c:	dec01604 	addi	sp,sp,88
    88a0:	f800283a 	ret
    88a4:	8cbfcc0e 	bge	r17,r18,87d8 <__ieee754_pow+0x54>
    88a8:	01000074 	movhi	r4,1
    88ac:	2134eb04 	addi	r4,r4,-11348
    88b0:	dfc01517 	ldw	ra,84(sp)
    88b4:	df001417 	ldw	fp,80(sp)
    88b8:	ddc01317 	ldw	r23,76(sp)
    88bc:	dd801217 	ldw	r22,72(sp)
    88c0:	dd401117 	ldw	r21,68(sp)
    88c4:	dd001017 	ldw	r20,64(sp)
    88c8:	dcc00f17 	ldw	r19,60(sp)
    88cc:	dc800e17 	ldw	r18,56(sp)
    88d0:	dc400d17 	ldw	r17,52(sp)
    88d4:	dc000c17 	ldw	r16,48(sp)
    88d8:	dec01604 	addi	sp,sp,88
    88dc:	0009b5c1 	jmpi	9b5c <nan>
    88e0:	002b883a 	mov	r21,zero
    88e4:	8009883a 	mov	r4,r16
    88e8:	980b883a 	mov	r5,r19
    88ec:	0009ab00 	call	9ab0 <fabs>
    88f0:	102f883a 	mov	r23,r2
    88f4:	80000f26 	beq	r16,zero,8934 <__ieee754_pow+0x1b0>
    88f8:	9816d7fa 	srli	r11,r19,31
    88fc:	5affffc4 	addi	r11,r11,-1
    8900:	aac4b03a 	or	r2,r21,r11
    8904:	10004b26 	beq	r2,zero,8a34 <__ieee754_pow+0x2b0>
    8908:	00907834 	movhi	r2,16864
    890c:	1480540e 	bge	r2,r18,8a60 <__ieee754_pow+0x2dc>
    8910:	0090fc34 	movhi	r2,17392
    8914:	14832d0e 	bge	r2,r18,95cc <__ieee754_pow+0xe48>
    8918:	008ffc34 	movhi	r2,16368
    891c:	10bfffc4 	addi	r2,r2,-1
    8920:	14401916 	blt	r2,r17,8988 <__ieee754_pow+0x204>
    8924:	e0001916 	blt	fp,zero,898c <__ieee754_pow+0x208>
    8928:	0005883a 	mov	r2,zero
    892c:	0007883a 	mov	r3,zero
    8930:	003fd006 	br	8874 <__ieee754_pow+0xf0>
    8934:	88000526 	beq	r17,zero,894c <__ieee754_pow+0x1c8>
    8938:	00900034 	movhi	r2,16384
    893c:	10bfffc4 	addi	r2,r2,-1
    8940:	9884703a 	and	r2,r19,r2
    8944:	010ffc34 	movhi	r4,16368
    8948:	113feb1e 	bne	r2,r4,88f8 <__ieee754_pow+0x174>
    894c:	e0000716 	blt	fp,zero,896c <__ieee754_pow+0x1e8>
    8950:	9802e216 	blt	r19,zero,94dc <__ieee754_pow+0xd58>
    8954:	b805883a 	mov	r2,r23
    8958:	003fc606 	br	8874 <__ieee754_pow+0xf0>
    895c:	e0037516 	blt	fp,zero,9734 <__ieee754_pow+0xfb0>
    8960:	8005883a 	mov	r2,r16
    8964:	9807883a 	mov	r3,r19
    8968:	003fc206 	br	8874 <__ieee754_pow+0xf0>
    896c:	b80d883a 	mov	r6,r23
    8970:	180f883a 	mov	r7,r3
    8974:	0009883a 	mov	r4,zero
    8978:	014ffc34 	movhi	r5,16368
    897c:	000a82c0 	call	a82c <__divdf3>
    8980:	102f883a 	mov	r23,r2
    8984:	003ff206 	br	8950 <__ieee754_pow+0x1cc>
    8988:	073fe70e 	bge	zero,fp,8928 <__ieee754_pow+0x1a4>
    898c:	01a20034 	movhi	r6,34816
    8990:	01df8e34 	movhi	r7,32312
    8994:	319d6704 	addi	r6,r6,30108
    8998:	39f90f04 	addi	r7,r7,-7108
    899c:	3009883a 	mov	r4,r6
    89a0:	380b883a 	mov	r5,r7
    89a4:	000b4540 	call	b454 <__muldf3>
    89a8:	003fb206 	br	8874 <__ieee754_pow+0xf0>
    89ac:	303f8c26 	beq	r6,zero,87e0 <__ieee754_pow+0x5c>
    89b0:	003faa06 	br	885c <__ieee754_pow+0xd8>
    89b4:	0090d034 	movhi	r2,17216
    89b8:	10bfffc4 	addi	r2,r2,-1
    89bc:	14801b16 	blt	r2,r18,8a2c <__ieee754_pow+0x2a8>
    89c0:	008ffc34 	movhi	r2,16368
    89c4:	10bfffc4 	addi	r2,r2,-1
    89c8:	14bf8a0e 	bge	r2,r18,87f4 <__ieee754_pow+0x70>
    89cc:	9005d53a 	srai	r2,r18,20
    89d0:	00c00504 	movi	r3,20
    89d4:	10bf0044 	addi	r2,r2,-1023
    89d8:	18836b0e 	bge	r3,r2,9788 <__ieee754_pow+0x1004>
    89dc:	00c00d04 	movi	r3,52
    89e0:	1885c83a 	sub	r2,r3,r2
    89e4:	3086d83a 	srl	r3,r6,r2
    89e8:	1884983a 	sll	r2,r3,r2
    89ec:	30bf811e 	bne	r6,r2,87f4 <__ieee754_pow+0x70>
    89f0:	18c0004c 	andi	r3,r3,1
    89f4:	02800084 	movi	r10,2
    89f8:	50ebc83a 	sub	r21,r10,r3
    89fc:	003f7e06 	br	87f8 <__ieee754_pow+0x74>
    8a00:	01300434 	movhi	r4,49168
    8a04:	8909883a 	add	r4,r17,r4
    8a08:	2408b03a 	or	r4,r4,r16
    8a0c:	203f9726 	beq	r4,zero,886c <__ieee754_pow+0xe8>
    8a10:	008ffc34 	movhi	r2,16368
    8a14:	10bfffc4 	addi	r2,r2,-1
    8a18:	1442e60e 	bge	r2,r17,95b4 <__ieee754_pow+0xe30>
    8a1c:	e03fc216 	blt	fp,zero,8928 <__ieee754_pow+0x1a4>
    8a20:	0005883a 	mov	r2,zero
    8a24:	e007883a 	mov	r3,fp
    8a28:	003f9206 	br	8874 <__ieee754_pow+0xf0>
    8a2c:	05400084 	movi	r21,2
    8a30:	003f7106 	br	87f8 <__ieee754_pow+0x74>
    8a34:	800d883a 	mov	r6,r16
    8a38:	980f883a 	mov	r7,r19
    8a3c:	3009883a 	mov	r4,r6
    8a40:	380b883a 	mov	r5,r7
    8a44:	000bcc00 	call	bcc0 <__subdf3>
    8a48:	100d883a 	mov	r6,r2
    8a4c:	180f883a 	mov	r7,r3
    8a50:	1009883a 	mov	r4,r2
    8a54:	180b883a 	mov	r5,r3
    8a58:	000a82c0 	call	a82c <__divdf3>
    8a5c:	003f8506 	br	8874 <__ieee754_pow+0xf0>
    8a60:	00800434 	movhi	r2,16
    8a64:	10bfffc4 	addi	r2,r2,-1
    8a68:	1442d616 	blt	r2,r17,95c4 <__ieee754_pow+0xe40>
    8a6c:	b809883a 	mov	r4,r23
    8a70:	000d883a 	mov	r6,zero
    8a74:	01d0d034 	movhi	r7,17216
    8a78:	180b883a 	mov	r5,r3
    8a7c:	dac00b15 	stw	r11,44(sp)
    8a80:	000b4540 	call	b454 <__muldf3>
    8a84:	dac00b17 	ldw	r11,44(sp)
    8a88:	102f883a 	mov	r23,r2
    8a8c:	1823883a 	mov	r17,r3
    8a90:	033ff2c4 	movi	r12,-53
    8a94:	8807d53a 	srai	r3,r17,20
    8a98:	00800434 	movhi	r2,16
    8a9c:	10bfffc4 	addi	r2,r2,-1
    8aa0:	18ff0044 	addi	r3,r3,-1023
    8aa4:	1b19883a 	add	r12,r3,r12
    8aa8:	00c00134 	movhi	r3,4
    8aac:	8884703a 	and	r2,r17,r2
    8ab0:	18e62384 	addi	r3,r3,-26482
    8ab4:	150ffc34 	orhi	r20,r2,16368
    8ab8:	1880060e 	bge	r3,r2,8ad4 <__ieee754_pow+0x350>
    8abc:	00c00334 	movhi	r3,12
    8ac0:	18ed9e44 	addi	r3,r3,-18823
    8ac4:	18833f0e 	bge	r3,r2,97c4 <__ieee754_pow+0x1040>
    8ac8:	00bffc34 	movhi	r2,65520
    8acc:	63000044 	addi	r12,r12,1
    8ad0:	a0a9883a 	add	r20,r20,r2
    8ad4:	0027883a 	mov	r19,zero
    8ad8:	d8000215 	stw	zero,8(sp)
    8adc:	0013883a 	mov	r9,zero
    8ae0:	0011883a 	mov	r8,zero
    8ae4:	0015883a 	mov	r10,zero
    8ae8:	048ffc34 	movhi	r18,16368
    8aec:	900f883a 	mov	r7,r18
    8af0:	b809883a 	mov	r4,r23
    8af4:	a00b883a 	mov	r5,r20
    8af8:	000d883a 	mov	r6,zero
    8afc:	da000a15 	stw	r8,40(sp)
    8b00:	da400815 	stw	r9,32(sp)
    8b04:	dac00b15 	stw	r11,44(sp)
    8b08:	db000915 	stw	r12,36(sp)
    8b0c:	da800515 	stw	r10,20(sp)
    8b10:	000bcc00 	call	bcc0 <__subdf3>
    8b14:	b809883a 	mov	r4,r23
    8b18:	a00b883a 	mov	r5,r20
    8b1c:	900f883a 	mov	r7,r18
    8b20:	000d883a 	mov	r6,zero
    8b24:	d8800015 	stw	r2,0(sp)
    8b28:	d8c00115 	stw	r3,4(sp)
    8b2c:	0009f800 	call	9f80 <__adddf3>
    8b30:	100d883a 	mov	r6,r2
    8b34:	180f883a 	mov	r7,r3
    8b38:	0009883a 	mov	r4,zero
    8b3c:	014ffc34 	movhi	r5,16368
    8b40:	000a82c0 	call	a82c <__divdf3>
    8b44:	d9000017 	ldw	r4,0(sp)
    8b48:	d9400117 	ldw	r5,4(sp)
    8b4c:	100d883a 	mov	r6,r2
    8b50:	180f883a 	mov	r7,r3
    8b54:	d8c00715 	stw	r3,28(sp)
    8b58:	d8800615 	stw	r2,24(sp)
    8b5c:	000b4540 	call	b454 <__muldf3>
    8b60:	1023883a 	mov	r17,r2
    8b64:	a005d07a 	srai	r2,r20,1
    8b68:	da800517 	ldw	r10,20(sp)
    8b6c:	1821883a 	mov	r16,r3
    8b70:	10c80034 	orhi	r3,r2,8192
    8b74:	00800234 	movhi	r2,8
    8b78:	1885883a 	add	r2,r3,r2
    8b7c:	1295883a 	add	r10,r2,r10
    8b80:	500f883a 	mov	r7,r10
    8b84:	800b883a 	mov	r5,r16
    8b88:	000d883a 	mov	r6,zero
    8b8c:	0009883a 	mov	r4,zero
    8b90:	da800515 	stw	r10,20(sp)
    8b94:	000b4540 	call	b454 <__muldf3>
    8b98:	d9000017 	ldw	r4,0(sp)
    8b9c:	d9400117 	ldw	r5,4(sp)
    8ba0:	100d883a 	mov	r6,r2
    8ba4:	180f883a 	mov	r7,r3
    8ba8:	000bcc00 	call	bcc0 <__subdf3>
    8bac:	da800517 	ldw	r10,20(sp)
    8bb0:	900f883a 	mov	r7,r18
    8bb4:	000d883a 	mov	r6,zero
    8bb8:	500b883a 	mov	r5,r10
    8bbc:	0009883a 	mov	r4,zero
    8bc0:	d8800015 	stw	r2,0(sp)
    8bc4:	d8c00515 	stw	r3,20(sp)
    8bc8:	000bcc00 	call	bcc0 <__subdf3>
    8bcc:	b809883a 	mov	r4,r23
    8bd0:	a00b883a 	mov	r5,r20
    8bd4:	100d883a 	mov	r6,r2
    8bd8:	180f883a 	mov	r7,r3
    8bdc:	000bcc00 	call	bcc0 <__subdf3>
    8be0:	800f883a 	mov	r7,r16
    8be4:	000d883a 	mov	r6,zero
    8be8:	1009883a 	mov	r4,r2
    8bec:	180b883a 	mov	r5,r3
    8bf0:	000b4540 	call	b454 <__muldf3>
    8bf4:	db400517 	ldw	r13,20(sp)
    8bf8:	d9000017 	ldw	r4,0(sp)
    8bfc:	100d883a 	mov	r6,r2
    8c00:	680b883a 	mov	r5,r13
    8c04:	180f883a 	mov	r7,r3
    8c08:	000bcc00 	call	bcc0 <__subdf3>
    8c0c:	dbc00617 	ldw	r15,24(sp)
    8c10:	db800717 	ldw	r14,28(sp)
    8c14:	1009883a 	mov	r4,r2
    8c18:	780d883a 	mov	r6,r15
    8c1c:	700f883a 	mov	r7,r14
    8c20:	180b883a 	mov	r5,r3
    8c24:	000b4540 	call	b454 <__muldf3>
    8c28:	880d883a 	mov	r6,r17
    8c2c:	800f883a 	mov	r7,r16
    8c30:	8809883a 	mov	r4,r17
    8c34:	800b883a 	mov	r5,r16
    8c38:	d8800015 	stw	r2,0(sp)
    8c3c:	d8c00115 	stw	r3,4(sp)
    8c40:	000b4540 	call	b454 <__muldf3>
    8c44:	01929174 	movhi	r6,19013
    8c48:	01cff2b4 	movhi	r7,16330
    8c4c:	3193bbc4 	addi	r6,r6,20207
    8c50:	39df8a04 	addi	r7,r7,32296
    8c54:	1009883a 	mov	r4,r2
    8c58:	180b883a 	mov	r5,r3
    8c5c:	102f883a 	mov	r23,r2
    8c60:	1829883a 	mov	r20,r3
    8c64:	000b4540 	call	b454 <__muldf3>
    8c68:	01a4f2b4 	movhi	r6,37834
    8c6c:	01cff3b4 	movhi	r7,16334
    8c70:	31b6d944 	addi	r6,r6,-9371
    8c74:	39e19284 	addi	r7,r7,-31158
    8c78:	1009883a 	mov	r4,r2
    8c7c:	180b883a 	mov	r5,r3
    8c80:	0009f800 	call	9f80 <__adddf3>
    8c84:	b80d883a 	mov	r6,r23
    8c88:	a00f883a 	mov	r7,r20
    8c8c:	1009883a 	mov	r4,r2
    8c90:	180b883a 	mov	r5,r3
    8c94:	000b4540 	call	b454 <__muldf3>
    8c98:	01aa4774 	movhi	r6,43293
    8c9c:	01cff474 	movhi	r7,16337
    8ca0:	31904044 	addi	r6,r6,16641
    8ca4:	39dd1804 	addi	r7,r7,29792
    8ca8:	1009883a 	mov	r4,r2
    8cac:	180b883a 	mov	r5,r3
    8cb0:	0009f800 	call	9f80 <__adddf3>
    8cb4:	b80d883a 	mov	r6,r23
    8cb8:	a00f883a 	mov	r7,r20
    8cbc:	1009883a 	mov	r4,r2
    8cc0:	180b883a 	mov	r5,r3
    8cc4:	000b4540 	call	b454 <__muldf3>
    8cc8:	019463f4 	movhi	r6,20879
    8ccc:	01cff574 	movhi	r7,16341
    8cd0:	31899344 	addi	r6,r6,9805
    8cd4:	39d55544 	addi	r7,r7,21845
    8cd8:	1009883a 	mov	r4,r2
    8cdc:	180b883a 	mov	r5,r3
    8ce0:	0009f800 	call	9f80 <__adddf3>
    8ce4:	b80d883a 	mov	r6,r23
    8ce8:	a00f883a 	mov	r7,r20
    8cec:	1009883a 	mov	r4,r2
    8cf0:	180b883a 	mov	r5,r3
    8cf4:	000b4540 	call	b454 <__muldf3>
    8cf8:	01b6dc34 	movhi	r6,56176
    8cfc:	01cff6f4 	movhi	r7,16347
    8d00:	31aaffc4 	addi	r6,r6,-21505
    8d04:	39db6d84 	addi	r7,r7,28086
    8d08:	1009883a 	mov	r4,r2
    8d0c:	180b883a 	mov	r5,r3
    8d10:	0009f800 	call	9f80 <__adddf3>
    8d14:	b80d883a 	mov	r6,r23
    8d18:	a00f883a 	mov	r7,r20
    8d1c:	1009883a 	mov	r4,r2
    8d20:	180b883a 	mov	r5,r3
    8d24:	000b4540 	call	b454 <__muldf3>
    8d28:	018cccf4 	movhi	r6,13107
    8d2c:	01cff8f4 	movhi	r7,16355
    8d30:	318cc0c4 	addi	r6,r6,13059
    8d34:	39ccccc4 	addi	r7,r7,13107
    8d38:	1009883a 	mov	r4,r2
    8d3c:	180b883a 	mov	r5,r3
    8d40:	0009f800 	call	9f80 <__adddf3>
    8d44:	b80d883a 	mov	r6,r23
    8d48:	a00f883a 	mov	r7,r20
    8d4c:	b809883a 	mov	r4,r23
    8d50:	a00b883a 	mov	r5,r20
    8d54:	1825883a 	mov	r18,r3
    8d58:	d8800515 	stw	r2,20(sp)
    8d5c:	000b4540 	call	b454 <__muldf3>
    8d60:	db400517 	ldw	r13,20(sp)
    8d64:	900b883a 	mov	r5,r18
    8d68:	100d883a 	mov	r6,r2
    8d6c:	6809883a 	mov	r4,r13
    8d70:	180f883a 	mov	r7,r3
    8d74:	000b4540 	call	b454 <__muldf3>
    8d78:	800f883a 	mov	r7,r16
    8d7c:	8809883a 	mov	r4,r17
    8d80:	800b883a 	mov	r5,r16
    8d84:	000d883a 	mov	r6,zero
    8d88:	102f883a 	mov	r23,r2
    8d8c:	1829883a 	mov	r20,r3
    8d90:	0009f800 	call	9f80 <__adddf3>
    8d94:	d9800017 	ldw	r6,0(sp)
    8d98:	d9c00117 	ldw	r7,4(sp)
    8d9c:	1009883a 	mov	r4,r2
    8da0:	180b883a 	mov	r5,r3
    8da4:	000b4540 	call	b454 <__muldf3>
    8da8:	b80d883a 	mov	r6,r23
    8dac:	a00f883a 	mov	r7,r20
    8db0:	1009883a 	mov	r4,r2
    8db4:	180b883a 	mov	r5,r3
    8db8:	0009f800 	call	9f80 <__adddf3>
    8dbc:	800f883a 	mov	r7,r16
    8dc0:	800b883a 	mov	r5,r16
    8dc4:	000d883a 	mov	r6,zero
    8dc8:	0009883a 	mov	r4,zero
    8dcc:	1025883a 	mov	r18,r2
    8dd0:	182f883a 	mov	r23,r3
    8dd4:	000b4540 	call	b454 <__muldf3>
    8dd8:	000d883a 	mov	r6,zero
    8ddc:	01d00234 	movhi	r7,16392
    8de0:	1009883a 	mov	r4,r2
    8de4:	180b883a 	mov	r5,r3
    8de8:	d8c00715 	stw	r3,28(sp)
    8dec:	d8800615 	stw	r2,24(sp)
    8df0:	0009f800 	call	9f80 <__adddf3>
    8df4:	900d883a 	mov	r6,r18
    8df8:	b80f883a 	mov	r7,r23
    8dfc:	1009883a 	mov	r4,r2
    8e00:	180b883a 	mov	r5,r3
    8e04:	0009f800 	call	9f80 <__adddf3>
    8e08:	800b883a 	mov	r5,r16
    8e0c:	000d883a 	mov	r6,zero
    8e10:	180f883a 	mov	r7,r3
    8e14:	0009883a 	mov	r4,zero
    8e18:	1829883a 	mov	r20,r3
    8e1c:	000b4540 	call	b454 <__muldf3>
    8e20:	a00b883a 	mov	r5,r20
    8e24:	000d883a 	mov	r6,zero
    8e28:	01d00234 	movhi	r7,16392
    8e2c:	0009883a 	mov	r4,zero
    8e30:	d8800315 	stw	r2,12(sp)
    8e34:	d8c00415 	stw	r3,16(sp)
    8e38:	000bcc00 	call	bcc0 <__subdf3>
    8e3c:	dbc00617 	ldw	r15,24(sp)
    8e40:	db800717 	ldw	r14,28(sp)
    8e44:	1009883a 	mov	r4,r2
    8e48:	780d883a 	mov	r6,r15
    8e4c:	700f883a 	mov	r7,r14
    8e50:	180b883a 	mov	r5,r3
    8e54:	000bcc00 	call	bcc0 <__subdf3>
    8e58:	9009883a 	mov	r4,r18
    8e5c:	b80b883a 	mov	r5,r23
    8e60:	100d883a 	mov	r6,r2
    8e64:	180f883a 	mov	r7,r3
    8e68:	000bcc00 	call	bcc0 <__subdf3>
    8e6c:	880d883a 	mov	r6,r17
    8e70:	800f883a 	mov	r7,r16
    8e74:	1009883a 	mov	r4,r2
    8e78:	180b883a 	mov	r5,r3
    8e7c:	000b4540 	call	b454 <__muldf3>
    8e80:	d9000017 	ldw	r4,0(sp)
    8e84:	d9400117 	ldw	r5,4(sp)
    8e88:	a00f883a 	mov	r7,r20
    8e8c:	000d883a 	mov	r6,zero
    8e90:	1023883a 	mov	r17,r2
    8e94:	1821883a 	mov	r16,r3
    8e98:	000b4540 	call	b454 <__muldf3>
    8e9c:	8809883a 	mov	r4,r17
    8ea0:	800b883a 	mov	r5,r16
    8ea4:	100d883a 	mov	r6,r2
    8ea8:	180f883a 	mov	r7,r3
    8eac:	0009f800 	call	9f80 <__adddf3>
    8eb0:	d9000317 	ldw	r4,12(sp)
    8eb4:	d9400417 	ldw	r5,16(sp)
    8eb8:	100d883a 	mov	r6,r2
    8ebc:	180f883a 	mov	r7,r3
    8ec0:	102f883a 	mov	r23,r2
    8ec4:	1823883a 	mov	r17,r3
    8ec8:	0009f800 	call	9f80 <__adddf3>
    8ecc:	01cffbf4 	movhi	r7,16367
    8ed0:	39f1c244 	addi	r7,r7,-14583
    8ed4:	0009883a 	mov	r4,zero
    8ed8:	180b883a 	mov	r5,r3
    8edc:	01b80034 	movhi	r6,57344
    8ee0:	1821883a 	mov	r16,r3
    8ee4:	000b4540 	call	b454 <__muldf3>
    8ee8:	d9800317 	ldw	r6,12(sp)
    8eec:	d9c00417 	ldw	r7,16(sp)
    8ef0:	800b883a 	mov	r5,r16
    8ef4:	0009883a 	mov	r4,zero
    8ef8:	1825883a 	mov	r18,r3
    8efc:	d8800015 	stw	r2,0(sp)
    8f00:	000bcc00 	call	bcc0 <__subdf3>
    8f04:	b809883a 	mov	r4,r23
    8f08:	880b883a 	mov	r5,r17
    8f0c:	100d883a 	mov	r6,r2
    8f10:	180f883a 	mov	r7,r3
    8f14:	000bcc00 	call	bcc0 <__subdf3>
    8f18:	01b70eb4 	movhi	r6,56378
    8f1c:	01cffbf4 	movhi	r7,16367
    8f20:	3180ff44 	addi	r6,r6,1021
    8f24:	39f1c244 	addi	r7,r7,-14583
    8f28:	1009883a 	mov	r4,r2
    8f2c:	180b883a 	mov	r5,r3
    8f30:	000b4540 	call	b454 <__muldf3>
    8f34:	018516f4 	movhi	r6,5211
    8f38:	01ef8fb4 	movhi	r7,48702
    8f3c:	800b883a 	mov	r5,r16
    8f40:	31807d44 	addi	r6,r6,501
    8f44:	39cbf804 	addi	r7,r7,12256
    8f48:	0009883a 	mov	r4,zero
    8f4c:	1029883a 	mov	r20,r2
    8f50:	1823883a 	mov	r17,r3
    8f54:	000b4540 	call	b454 <__muldf3>
    8f58:	a009883a 	mov	r4,r20
    8f5c:	880b883a 	mov	r5,r17
    8f60:	100d883a 	mov	r6,r2
    8f64:	180f883a 	mov	r7,r3
    8f68:	0009f800 	call	9f80 <__adddf3>
    8f6c:	da400817 	ldw	r9,32(sp)
    8f70:	da000a17 	ldw	r8,40(sp)
    8f74:	180b883a 	mov	r5,r3
    8f78:	480d883a 	mov	r6,r9
    8f7c:	400f883a 	mov	r7,r8
    8f80:	1009883a 	mov	r4,r2
    8f84:	0009f800 	call	9f80 <__adddf3>
    8f88:	db000917 	ldw	r12,36(sp)
    8f8c:	1029883a 	mov	r20,r2
    8f90:	1823883a 	mov	r17,r3
    8f94:	6009883a 	mov	r4,r12
    8f98:	000c63c0 	call	c63c <__floatsidf>
    8f9c:	d9000017 	ldw	r4,0(sp)
    8fa0:	a00d883a 	mov	r6,r20
    8fa4:	880f883a 	mov	r7,r17
    8fa8:	900b883a 	mov	r5,r18
    8fac:	182f883a 	mov	r23,r3
    8fb0:	d8800115 	stw	r2,4(sp)
    8fb4:	0009f800 	call	9f80 <__adddf3>
    8fb8:	d9c00217 	ldw	r7,8(sp)
    8fbc:	980d883a 	mov	r6,r19
    8fc0:	1009883a 	mov	r4,r2
    8fc4:	180b883a 	mov	r5,r3
    8fc8:	0009f800 	call	9f80 <__adddf3>
    8fcc:	d9800117 	ldw	r6,4(sp)
    8fd0:	b80f883a 	mov	r7,r23
    8fd4:	1009883a 	mov	r4,r2
    8fd8:	180b883a 	mov	r5,r3
    8fdc:	0009f800 	call	9f80 <__adddf3>
    8fe0:	d9800117 	ldw	r6,4(sp)
    8fe4:	b80f883a 	mov	r7,r23
    8fe8:	0009883a 	mov	r4,zero
    8fec:	180b883a 	mov	r5,r3
    8ff0:	1821883a 	mov	r16,r3
    8ff4:	000bcc00 	call	bcc0 <__subdf3>
    8ff8:	d9c00217 	ldw	r7,8(sp)
    8ffc:	980d883a 	mov	r6,r19
    9000:	1009883a 	mov	r4,r2
    9004:	180b883a 	mov	r5,r3
    9008:	000bcc00 	call	bcc0 <__subdf3>
    900c:	d9800017 	ldw	r6,0(sp)
    9010:	900f883a 	mov	r7,r18
    9014:	1009883a 	mov	r4,r2
    9018:	180b883a 	mov	r5,r3
    901c:	000bcc00 	call	bcc0 <__subdf3>
    9020:	880b883a 	mov	r5,r17
    9024:	100d883a 	mov	r6,r2
    9028:	180f883a 	mov	r7,r3
    902c:	a009883a 	mov	r4,r20
    9030:	000bcc00 	call	bcc0 <__subdf3>
    9034:	dac00b17 	ldw	r11,44(sp)
    9038:	aabfffc4 	addi	r10,r21,-1
    903c:	1025883a 	mov	r18,r2
    9040:	52d6b03a 	or	r11,r10,r11
    9044:	1823883a 	mov	r17,r3
    9048:	58015826 	beq	r11,zero,95ac <__ieee754_pow+0xe28>
    904c:	04cffc34 	movhi	r19,16368
    9050:	b009883a 	mov	r4,r22
    9054:	000d883a 	mov	r6,zero
    9058:	e00f883a 	mov	r7,fp
    905c:	e00b883a 	mov	r5,fp
    9060:	000bcc00 	call	bcc0 <__subdf3>
    9064:	800f883a 	mov	r7,r16
    9068:	000d883a 	mov	r6,zero
    906c:	1009883a 	mov	r4,r2
    9070:	180b883a 	mov	r5,r3
    9074:	000b4540 	call	b454 <__muldf3>
    9078:	b00d883a 	mov	r6,r22
    907c:	9009883a 	mov	r4,r18
    9080:	880b883a 	mov	r5,r17
    9084:	e00f883a 	mov	r7,fp
    9088:	1829883a 	mov	r20,r3
    908c:	102b883a 	mov	r21,r2
    9090:	000b4540 	call	b454 <__muldf3>
    9094:	a00b883a 	mov	r5,r20
    9098:	100d883a 	mov	r6,r2
    909c:	180f883a 	mov	r7,r3
    90a0:	a809883a 	mov	r4,r21
    90a4:	0009f800 	call	9f80 <__adddf3>
    90a8:	800b883a 	mov	r5,r16
    90ac:	000d883a 	mov	r6,zero
    90b0:	e00f883a 	mov	r7,fp
    90b4:	0009883a 	mov	r4,zero
    90b8:	102d883a 	mov	r22,r2
    90bc:	1829883a 	mov	r20,r3
    90c0:	000b4540 	call	b454 <__muldf3>
    90c4:	100d883a 	mov	r6,r2
    90c8:	180f883a 	mov	r7,r3
    90cc:	b009883a 	mov	r4,r22
    90d0:	a00b883a 	mov	r5,r20
    90d4:	1025883a 	mov	r18,r2
    90d8:	1823883a 	mov	r17,r3
    90dc:	0009f800 	call	9f80 <__adddf3>
    90e0:	102f883a 	mov	r23,r2
    90e4:	00902434 	movhi	r2,16528
    90e8:	10bfffc4 	addi	r2,r2,-1
    90ec:	1821883a 	mov	r16,r3
    90f0:	9013883a 	mov	r9,r18
    90f4:	8811883a 	mov	r8,r17
    90f8:	10c1070e 	bge	r2,r3,9518 <__ieee754_pow+0xd94>
    90fc:	00afdc34 	movhi	r2,49008
    9100:	1885883a 	add	r2,r3,r2
    9104:	15c4b03a 	or	r2,r2,r23
    9108:	1001901e 	bne	r2,zero,974c <__ieee754_pow+0xfc8>
    910c:	01994b34 	movhi	r6,25900
    9110:	01cf25f4 	movhi	r7,15511
    9114:	31a0bf84 	addi	r6,r6,-32002
    9118:	39c551c4 	addi	r7,r7,5447
    911c:	b009883a 	mov	r4,r22
    9120:	a00b883a 	mov	r5,r20
    9124:	0009f800 	call	9f80 <__adddf3>
    9128:	900d883a 	mov	r6,r18
    912c:	880f883a 	mov	r7,r17
    9130:	b809883a 	mov	r4,r23
    9134:	800b883a 	mov	r5,r16
    9138:	1039883a 	mov	fp,r2
    913c:	182b883a 	mov	r21,r3
    9140:	000bcc00 	call	bcc0 <__subdf3>
    9144:	100d883a 	mov	r6,r2
    9148:	180f883a 	mov	r7,r3
    914c:	e009883a 	mov	r4,fp
    9150:	a80b883a 	mov	r5,r21
    9154:	000b2840 	call	b284 <__gedf2>
    9158:	00817c16 	blt	zero,r2,974c <__ieee754_pow+0xfc8>
    915c:	802b883a 	mov	r21,r16
    9160:	a805d53a 	srai	r2,r21,20
    9164:	00c00434 	movhi	r3,16
    9168:	01000434 	movhi	r4,16
    916c:	10bf0084 	addi	r2,r2,-1022
    9170:	1885d83a 	sra	r2,r3,r2
    9174:	213fffc4 	addi	r4,r4,-1
    9178:	1405883a 	add	r2,r2,r16
    917c:	1006907a 	slli	r3,r2,1
    9180:	112a703a 	and	r21,r2,r4
    9184:	ad400434 	orhi	r21,r21,16
    9188:	1806d57a 	srli	r3,r3,21
    918c:	18ff0044 	addi	r3,r3,-1023
    9190:	20cfd83a 	sra	r7,r4,r3
    9194:	01000504 	movi	r4,20
    9198:	20c7c83a 	sub	r3,r4,r3
    919c:	a8c7d83a 	sra	r3,r21,r3
    91a0:	01ce303a 	nor	r7,zero,r7
    91a4:	388e703a 	and	r7,r7,r2
    91a8:	d8c00015 	stw	r3,0(sp)
    91ac:	80019016 	blt	r16,zero,97f0 <__ieee754_pow+0x106c>
    91b0:	000d883a 	mov	r6,zero
    91b4:	9009883a 	mov	r4,r18
    91b8:	880b883a 	mov	r5,r17
    91bc:	000bcc00 	call	bcc0 <__subdf3>
    91c0:	100d883a 	mov	r6,r2
    91c4:	180f883a 	mov	r7,r3
    91c8:	b009883a 	mov	r4,r22
    91cc:	a00b883a 	mov	r5,r20
    91d0:	d8c00a15 	stw	r3,40(sp)
    91d4:	d8800815 	stw	r2,32(sp)
    91d8:	0009f800 	call	9f80 <__adddf3>
    91dc:	d8800017 	ldw	r2,0(sp)
    91e0:	da000a17 	ldw	r8,40(sp)
    91e4:	da400817 	ldw	r9,32(sp)
    91e8:	1004953a 	slli	r2,r2,20
    91ec:	1821883a 	mov	r16,r3
    91f0:	d8800215 	stw	r2,8(sp)
    91f4:	01cff9b4 	movhi	r7,16358
    91f8:	800b883a 	mov	r5,r16
    91fc:	39cb90c4 	addi	r7,r7,11843
    9200:	0009883a 	mov	r4,zero
    9204:	000d883a 	mov	r6,zero
    9208:	da000a15 	stw	r8,40(sp)
    920c:	da400815 	stw	r9,32(sp)
    9210:	000b4540 	call	b454 <__muldf3>
    9214:	da400817 	ldw	r9,32(sp)
    9218:	da000a17 	ldw	r8,40(sp)
    921c:	800b883a 	mov	r5,r16
    9220:	480d883a 	mov	r6,r9
    9224:	400f883a 	mov	r7,r8
    9228:	0009883a 	mov	r4,zero
    922c:	1039883a 	mov	fp,r2
    9230:	182f883a 	mov	r23,r3
    9234:	000bcc00 	call	bcc0 <__subdf3>
    9238:	b009883a 	mov	r4,r22
    923c:	a00b883a 	mov	r5,r20
    9240:	100d883a 	mov	r6,r2
    9244:	180f883a 	mov	r7,r3
    9248:	000bcc00 	call	bcc0 <__subdf3>
    924c:	01bfbeb4 	movhi	r6,65274
    9250:	01cff9b4 	movhi	r7,16358
    9254:	318e7bc4 	addi	r6,r6,14831
    9258:	39cb9084 	addi	r7,r7,11842
    925c:	1009883a 	mov	r4,r2
    9260:	180b883a 	mov	r5,r3
    9264:	000b4540 	call	b454 <__muldf3>
    9268:	01832a34 	movhi	r6,3240
    926c:	01ef8834 	movhi	r7,48672
    9270:	800b883a 	mov	r5,r16
    9274:	319b0e44 	addi	r6,r6,27705
    9278:	39d71844 	addi	r7,r7,23649
    927c:	0009883a 	mov	r4,zero
    9280:	1029883a 	mov	r20,r2
    9284:	1823883a 	mov	r17,r3
    9288:	000b4540 	call	b454 <__muldf3>
    928c:	a009883a 	mov	r4,r20
    9290:	880b883a 	mov	r5,r17
    9294:	100d883a 	mov	r6,r2
    9298:	180f883a 	mov	r7,r3
    929c:	0009f800 	call	9f80 <__adddf3>
    92a0:	e009883a 	mov	r4,fp
    92a4:	b80b883a 	mov	r5,r23
    92a8:	100d883a 	mov	r6,r2
    92ac:	180f883a 	mov	r7,r3
    92b0:	102d883a 	mov	r22,r2
    92b4:	1829883a 	mov	r20,r3
    92b8:	0009f800 	call	9f80 <__adddf3>
    92bc:	e00d883a 	mov	r6,fp
    92c0:	b80f883a 	mov	r7,r23
    92c4:	1009883a 	mov	r4,r2
    92c8:	180b883a 	mov	r5,r3
    92cc:	1023883a 	mov	r17,r2
    92d0:	1821883a 	mov	r16,r3
    92d4:	000bcc00 	call	bcc0 <__subdf3>
    92d8:	b009883a 	mov	r4,r22
    92dc:	a00b883a 	mov	r5,r20
    92e0:	100d883a 	mov	r6,r2
    92e4:	180f883a 	mov	r7,r3
    92e8:	000bcc00 	call	bcc0 <__subdf3>
    92ec:	880d883a 	mov	r6,r17
    92f0:	800f883a 	mov	r7,r16
    92f4:	8809883a 	mov	r4,r17
    92f8:	800b883a 	mov	r5,r16
    92fc:	1039883a 	mov	fp,r2
    9300:	182f883a 	mov	r23,r3
    9304:	000b4540 	call	b454 <__muldf3>
    9308:	019caff4 	movhi	r6,29375
    930c:	01cf99b4 	movhi	r7,15974
    9310:	31a93404 	addi	r6,r6,-23344
    9314:	39cdda44 	addi	r7,r7,14185
    9318:	1009883a 	mov	r4,r2
    931c:	180b883a 	mov	r5,r3
    9320:	102d883a 	mov	r22,r2
    9324:	1829883a 	mov	r20,r3
    9328:	000b4540 	call	b454 <__muldf3>
    932c:	01b174b4 	movhi	r6,50642
    9330:	01cfaf34 	movhi	r7,16060
    9334:	319afc44 	addi	r6,r6,27633
    9338:	39ef5044 	addi	r7,r7,-17087
    933c:	1009883a 	mov	r4,r2
    9340:	180b883a 	mov	r5,r3
    9344:	000bcc00 	call	bcc0 <__subdf3>
    9348:	b00d883a 	mov	r6,r22
    934c:	a00f883a 	mov	r7,r20
    9350:	1009883a 	mov	r4,r2
    9354:	180b883a 	mov	r5,r3
    9358:	000b4540 	call	b454 <__muldf3>
    935c:	01abc9b4 	movhi	r6,44838
    9360:	01cfc474 	movhi	r7,16145
    9364:	31b78b04 	addi	r6,r6,-8660
    9368:	39d59a84 	addi	r7,r7,22122
    936c:	1009883a 	mov	r4,r2
    9370:	180b883a 	mov	r5,r3
    9374:	0009f800 	call	9f80 <__adddf3>
    9378:	b00d883a 	mov	r6,r22
    937c:	a00f883a 	mov	r7,r20
    9380:	1009883a 	mov	r4,r2
    9384:	180b883a 	mov	r5,r3
    9388:	000b4540 	call	b454 <__muldf3>
    938c:	0185aff4 	movhi	r6,5823
    9390:	01cfd9f4 	movhi	r7,16231
    9394:	31af64c4 	addi	r6,r6,-17005
    9398:	39f05b04 	addi	r7,r7,-16020
    939c:	1009883a 	mov	r4,r2
    93a0:	180b883a 	mov	r5,r3
    93a4:	000bcc00 	call	bcc0 <__subdf3>
    93a8:	b00d883a 	mov	r6,r22
    93ac:	a00f883a 	mov	r7,r20
    93b0:	1009883a 	mov	r4,r2
    93b4:	180b883a 	mov	r5,r3
    93b8:	000b4540 	call	b454 <__muldf3>
    93bc:	01955574 	movhi	r6,21845
    93c0:	01cff174 	movhi	r7,16325
    93c4:	31954f84 	addi	r6,r6,21822
    93c8:	39d55544 	addi	r7,r7,21845
    93cc:	1009883a 	mov	r4,r2
    93d0:	180b883a 	mov	r5,r3
    93d4:	0009f800 	call	9f80 <__adddf3>
    93d8:	b00d883a 	mov	r6,r22
    93dc:	a00f883a 	mov	r7,r20
    93e0:	1009883a 	mov	r4,r2
    93e4:	180b883a 	mov	r5,r3
    93e8:	000b4540 	call	b454 <__muldf3>
    93ec:	100d883a 	mov	r6,r2
    93f0:	180f883a 	mov	r7,r3
    93f4:	8809883a 	mov	r4,r17
    93f8:	800b883a 	mov	r5,r16
    93fc:	000bcc00 	call	bcc0 <__subdf3>
    9400:	100d883a 	mov	r6,r2
    9404:	180f883a 	mov	r7,r3
    9408:	8809883a 	mov	r4,r17
    940c:	800b883a 	mov	r5,r16
    9410:	102d883a 	mov	r22,r2
    9414:	1829883a 	mov	r20,r3
    9418:	000b4540 	call	b454 <__muldf3>
    941c:	b009883a 	mov	r4,r22
    9420:	a00b883a 	mov	r5,r20
    9424:	000d883a 	mov	r6,zero
    9428:	01d00034 	movhi	r7,16384
    942c:	1025883a 	mov	r18,r2
    9430:	182b883a 	mov	r21,r3
    9434:	000bcc00 	call	bcc0 <__subdf3>
    9438:	100d883a 	mov	r6,r2
    943c:	180f883a 	mov	r7,r3
    9440:	9009883a 	mov	r4,r18
    9444:	a80b883a 	mov	r5,r21
    9448:	000a82c0 	call	a82c <__divdf3>
    944c:	e00d883a 	mov	r6,fp
    9450:	b80f883a 	mov	r7,r23
    9454:	8809883a 	mov	r4,r17
    9458:	800b883a 	mov	r5,r16
    945c:	102d883a 	mov	r22,r2
    9460:	1829883a 	mov	r20,r3
    9464:	000b4540 	call	b454 <__muldf3>
    9468:	e00d883a 	mov	r6,fp
    946c:	b80f883a 	mov	r7,r23
    9470:	1009883a 	mov	r4,r2
    9474:	180b883a 	mov	r5,r3
    9478:	0009f800 	call	9f80 <__adddf3>
    947c:	100d883a 	mov	r6,r2
    9480:	180f883a 	mov	r7,r3
    9484:	b009883a 	mov	r4,r22
    9488:	a00b883a 	mov	r5,r20
    948c:	000bcc00 	call	bcc0 <__subdf3>
    9490:	880d883a 	mov	r6,r17
    9494:	800f883a 	mov	r7,r16
    9498:	1009883a 	mov	r4,r2
    949c:	180b883a 	mov	r5,r3
    94a0:	000bcc00 	call	bcc0 <__subdf3>
    94a4:	0009883a 	mov	r4,zero
    94a8:	014ffc34 	movhi	r5,16368
    94ac:	100d883a 	mov	r6,r2
    94b0:	180f883a 	mov	r7,r3
    94b4:	000bcc00 	call	bcc0 <__subdf3>
    94b8:	d9000217 	ldw	r4,8(sp)
    94bc:	190b883a 	add	r5,r3,r4
    94c0:	2809d53a 	srai	r4,r5,20
    94c4:	0100cd0e 	bge	zero,r4,97fc <__ieee754_pow+0x1078>
    94c8:	1009883a 	mov	r4,r2
    94cc:	000d883a 	mov	r6,zero
    94d0:	980f883a 	mov	r7,r19
    94d4:	000b4540 	call	b454 <__muldf3>
    94d8:	003ce606 	br	8874 <__ieee754_pow+0xf0>
    94dc:	00b00434 	movhi	r2,49168
    94e0:	8885883a 	add	r2,r17,r2
    94e4:	1544b03a 	or	r2,r2,r21
    94e8:	1000b326 	beq	r2,zero,97b8 <__ieee754_pow+0x1034>
    94ec:	00800044 	movi	r2,1
    94f0:	a8bd181e 	bne	r21,r2,8954 <__ieee754_pow+0x1d0>
    94f4:	18e0003c 	xorhi	r3,r3,32768
    94f8:	b805883a 	mov	r2,r23
    94fc:	003cdd06 	br	8874 <__ieee754_pow+0xf0>
    9500:	800d883a 	mov	r6,r16
    9504:	980f883a 	mov	r7,r19
    9508:	8009883a 	mov	r4,r16
    950c:	980b883a 	mov	r5,r19
    9510:	000b4540 	call	b454 <__muldf3>
    9514:	003cd706 	br	8874 <__ieee754_pow+0xf0>
    9518:	05600034 	movhi	r21,32768
    951c:	ad7fffc4 	addi	r21,r21,-1
    9520:	00902474 	movhi	r2,16529
    9524:	1d6a703a 	and	r21,r3,r21
    9528:	10b2ffc4 	addi	r2,r2,-13313
    952c:	15409d0e 	bge	r2,r21,97a4 <__ieee754_pow+0x1020>
    9530:	008fdbf4 	movhi	r2,16239
    9534:	108d0004 	addi	r2,r2,13312
    9538:	1885883a 	add	r2,r3,r2
    953c:	15c4b03a 	or	r2,r2,r23
    9540:	10000b1e 	bne	r2,zero,9570 <__ieee754_pow+0xdec>
    9544:	900d883a 	mov	r6,r18
    9548:	880f883a 	mov	r7,r17
    954c:	b809883a 	mov	r4,r23
    9550:	180b883a 	mov	r5,r3
    9554:	000bcc00 	call	bcc0 <__subdf3>
    9558:	100d883a 	mov	r6,r2
    955c:	180f883a 	mov	r7,r3
    9560:	b009883a 	mov	r4,r22
    9564:	a00b883a 	mov	r5,r20
    9568:	000b3600 	call	b360 <__ledf2>
    956c:	00befc16 	blt	zero,r2,9160 <__ieee754_pow+0x9dc>
    9570:	01b0be74 	movhi	r6,49913
    9574:	01c06974 	movhi	r7,421
    9578:	980b883a 	mov	r5,r19
    957c:	31bcd644 	addi	r6,r6,-3239
    9580:	39db87c4 	addi	r7,r7,28191
    9584:	0009883a 	mov	r4,zero
    9588:	000b4540 	call	b454 <__muldf3>
    958c:	01b0be74 	movhi	r6,49913
    9590:	01c06974 	movhi	r7,421
    9594:	31bcd644 	addi	r6,r6,-3239
    9598:	39db87c4 	addi	r7,r7,28191
    959c:	1009883a 	mov	r4,r2
    95a0:	180b883a 	mov	r5,r3
    95a4:	000b4540 	call	b454 <__muldf3>
    95a8:	003cb206 	br	8874 <__ieee754_pow+0xf0>
    95ac:	04effc34 	movhi	r19,49136
    95b0:	003ea706 	br	9050 <__ieee754_pow+0x8cc>
    95b4:	e03cdc0e 	bge	fp,zero,8928 <__ieee754_pow+0x1a4>
    95b8:	0005883a 	mov	r2,zero
    95bc:	e0e0003c 	xorhi	r3,fp,32768
    95c0:	003cac06 	br	8874 <__ieee754_pow+0xf0>
    95c4:	0019883a 	mov	r12,zero
    95c8:	003d3206 	br	8a94 <__ieee754_pow+0x310>
    95cc:	008ffc34 	movhi	r2,16368
    95d0:	10bfff84 	addi	r2,r2,-2
    95d4:	147cd30e 	bge	r2,r17,8924 <__ieee754_pow+0x1a0>
    95d8:	01cffc34 	movhi	r7,16368
    95dc:	3c7cea16 	blt	r7,r17,8988 <__ieee754_pow+0x204>
    95e0:	b809883a 	mov	r4,r23
    95e4:	000d883a 	mov	r6,zero
    95e8:	180b883a 	mov	r5,r3
    95ec:	dac00b15 	stw	r11,44(sp)
    95f0:	000bcc00 	call	bcc0 <__subdf3>
    95f4:	01cffdf4 	movhi	r7,16375
    95f8:	39c551c4 	addi	r7,r7,5447
    95fc:	01980034 	movhi	r6,24576
    9600:	1009883a 	mov	r4,r2
    9604:	180b883a 	mov	r5,r3
    9608:	1023883a 	mov	r17,r2
    960c:	1821883a 	mov	r16,r3
    9610:	000b4540 	call	b454 <__muldf3>
    9614:	01be17b4 	movhi	r6,63582
    9618:	01cf9574 	movhi	r7,15957
    961c:	8809883a 	mov	r4,r17
    9620:	800b883a 	mov	r5,r16
    9624:	31b7d104 	addi	r6,r6,-8380
    9628:	39eb82c4 	addi	r7,r7,-20981
    962c:	1027883a 	mov	r19,r2
    9630:	1825883a 	mov	r18,r3
    9634:	000b4540 	call	b454 <__muldf3>
    9638:	8809883a 	mov	r4,r17
    963c:	800b883a 	mov	r5,r16
    9640:	000d883a 	mov	r6,zero
    9644:	01cff434 	movhi	r7,16336
    9648:	1829883a 	mov	r20,r3
    964c:	d8800a15 	stw	r2,40(sp)
    9650:	000b4540 	call	b454 <__muldf3>
    9654:	01155574 	movhi	r4,21845
    9658:	014ff574 	movhi	r5,16341
    965c:	100d883a 	mov	r6,r2
    9660:	180f883a 	mov	r7,r3
    9664:	21155544 	addi	r4,r4,21845
    9668:	29555544 	addi	r5,r5,21845
    966c:	000bcc00 	call	bcc0 <__subdf3>
    9670:	880d883a 	mov	r6,r17
    9674:	800f883a 	mov	r7,r16
    9678:	1009883a 	mov	r4,r2
    967c:	180b883a 	mov	r5,r3
    9680:	000b4540 	call	b454 <__muldf3>
    9684:	100d883a 	mov	r6,r2
    9688:	180f883a 	mov	r7,r3
    968c:	0009883a 	mov	r4,zero
    9690:	014ff834 	movhi	r5,16352
    9694:	000bcc00 	call	bcc0 <__subdf3>
    9698:	880d883a 	mov	r6,r17
    969c:	800f883a 	mov	r7,r16
    96a0:	8809883a 	mov	r4,r17
    96a4:	800b883a 	mov	r5,r16
    96a8:	102f883a 	mov	r23,r2
    96ac:	d8c00815 	stw	r3,32(sp)
    96b0:	000b4540 	call	b454 <__muldf3>
    96b4:	da400817 	ldw	r9,32(sp)
    96b8:	100d883a 	mov	r6,r2
    96bc:	180f883a 	mov	r7,r3
    96c0:	480b883a 	mov	r5,r9
    96c4:	b809883a 	mov	r4,r23
    96c8:	000b4540 	call	b454 <__muldf3>
    96cc:	01994b34 	movhi	r6,25900
    96d0:	01cffdf4 	movhi	r7,16375
    96d4:	31a0bf84 	addi	r6,r6,-32002
    96d8:	39c551c4 	addi	r7,r7,5447
    96dc:	1009883a 	mov	r4,r2
    96e0:	180b883a 	mov	r5,r3
    96e4:	000b4540 	call	b454 <__muldf3>
    96e8:	da000a17 	ldw	r8,40(sp)
    96ec:	a00b883a 	mov	r5,r20
    96f0:	100d883a 	mov	r6,r2
    96f4:	4009883a 	mov	r4,r8
    96f8:	180f883a 	mov	r7,r3
    96fc:	000bcc00 	call	bcc0 <__subdf3>
    9700:	100d883a 	mov	r6,r2
    9704:	180f883a 	mov	r7,r3
    9708:	9809883a 	mov	r4,r19
    970c:	900b883a 	mov	r5,r18
    9710:	1029883a 	mov	r20,r2
    9714:	1823883a 	mov	r17,r3
    9718:	0009f800 	call	9f80 <__adddf3>
    971c:	1821883a 	mov	r16,r3
    9720:	980d883a 	mov	r6,r19
    9724:	900f883a 	mov	r7,r18
    9728:	0009883a 	mov	r4,zero
    972c:	180b883a 	mov	r5,r3
    9730:	003e3a06 	br	901c <__ieee754_pow+0x898>
    9734:	800d883a 	mov	r6,r16
    9738:	980f883a 	mov	r7,r19
    973c:	0009883a 	mov	r4,zero
    9740:	900b883a 	mov	r5,r18
    9744:	000a82c0 	call	a82c <__divdf3>
    9748:	003c4a06 	br	8874 <__ieee754_pow+0xf0>
    974c:	01a20034 	movhi	r6,34816
    9750:	01df8e34 	movhi	r7,32312
    9754:	980b883a 	mov	r5,r19
    9758:	319d6704 	addi	r6,r6,30108
    975c:	39f90f04 	addi	r7,r7,-7108
    9760:	0009883a 	mov	r4,zero
    9764:	000b4540 	call	b454 <__muldf3>
    9768:	01a20034 	movhi	r6,34816
    976c:	01df8e34 	movhi	r7,32312
    9770:	319d6704 	addi	r6,r6,30108
    9774:	39f90f04 	addi	r7,r7,-7108
    9778:	1009883a 	mov	r4,r2
    977c:	180b883a 	mov	r5,r3
    9780:	000b4540 	call	b454 <__muldf3>
    9784:	003c3b06 	br	8874 <__ieee754_pow+0xf0>
    9788:	303c551e 	bne	r6,zero,88e0 <__ieee754_pow+0x15c>
    978c:	1885c83a 	sub	r2,r3,r2
    9790:	9087d83a 	sra	r3,r18,r2
    9794:	1884983a 	sll	r2,r3,r2
    9798:	90801f26 	beq	r18,r2,9818 <__ieee754_pow+0x1094>
    979c:	002b883a 	mov	r21,zero
    97a0:	003c1806 	br	8804 <__ieee754_pow+0x80>
    97a4:	008ff834 	movhi	r2,16352
    97a8:	157e6d16 	blt	r2,r21,9160 <__ieee754_pow+0x9dc>
    97ac:	d8000215 	stw	zero,8(sp)
    97b0:	d8000015 	stw	zero,0(sp)
    97b4:	003e8f06 	br	91f4 <__ieee754_pow+0xa70>
    97b8:	b80d883a 	mov	r6,r23
    97bc:	180f883a 	mov	r7,r3
    97c0:	003c9e06 	br	8a3c <__ieee754_pow+0x2b8>
    97c4:	008ff8f4 	movhi	r2,16355
    97c8:	10ae00c4 	addi	r2,r2,-18429
    97cc:	0250f434 	movhi	r9,17360
    97d0:	020f9374 	movhi	r8,15949
    97d4:	d8800215 	stw	r2,8(sp)
    97d8:	4a740184 	addi	r9,r9,-12282
    97dc:	423f7ac4 	addi	r8,r8,-533
    97e0:	04d00034 	movhi	r19,16384
    97e4:	02800134 	movhi	r10,4
    97e8:	048ffe34 	movhi	r18,16376
    97ec:	003cbf06 	br	8aec <__ieee754_pow+0x368>
    97f0:	00c9c83a 	sub	r4,zero,r3
    97f4:	d9000015 	stw	r4,0(sp)
    97f8:	003e6d06 	br	91b0 <__ieee754_pow+0xa2c>
    97fc:	d9800017 	ldw	r6,0(sp)
    9800:	1009883a 	mov	r4,r2
    9804:	180b883a 	mov	r5,r3
    9808:	0009d540 	call	9d54 <scalbn>
    980c:	1009883a 	mov	r4,r2
    9810:	180b883a 	mov	r5,r3
    9814:	003f2d06 	br	94cc <__ieee754_pow+0xd48>
    9818:	18c0004c 	andi	r3,r3,1
    981c:	02800084 	movi	r10,2
    9820:	50ebc83a 	sub	r21,r10,r3
    9824:	003bf706 	br	8804 <__ieee754_pow+0x80>

00009828 <__ieee754_sqrt>:
    9828:	defffd04 	addi	sp,sp,-12
    982c:	dc400115 	stw	r17,4(sp)
    9830:	dc000015 	stw	r16,0(sp)
    9834:	dfc00215 	stw	ra,8(sp)
    9838:	28dffc2c 	andhi	r3,r5,32752
    983c:	009ffc34 	movhi	r2,32752
    9840:	2821883a 	mov	r16,r5
    9844:	2023883a 	mov	r17,r4
    9848:	200d883a 	mov	r6,r4
    984c:	18807b26 	beq	r3,r2,9a3c <__ieee754_sqrt+0x214>
    9850:	01405f0e 	bge	zero,r5,99d0 <__ieee754_sqrt+0x1a8>
    9854:	2815d53a 	srai	r10,r5,20
    9858:	50006a26 	beq	r10,zero,9a04 <__ieee754_sqrt+0x1dc>
    985c:	00c00434 	movhi	r3,16
    9860:	52bf0044 	addi	r10,r10,-1023
    9864:	18ffffc4 	addi	r3,r3,-1
    9868:	80c6703a 	and	r3,r16,r3
    986c:	5080004c 	andi	r2,r10,1
    9870:	18c00434 	orhi	r3,r3,16
    9874:	1000511e 	bne	r2,zero,99bc <__ieee754_sqrt+0x194>
    9878:	3004d7fa 	srli	r2,r6,31
    987c:	5015d07a 	srai	r10,r10,1
    9880:	18c7883a 	add	r3,r3,r3
    9884:	10c5883a 	add	r2,r2,r3
    9888:	01400584 	movi	r5,22
    988c:	3187883a 	add	r3,r6,r6
    9890:	0013883a 	mov	r9,zero
    9894:	000f883a 	mov	r7,zero
    9898:	01000834 	movhi	r4,32
    989c:	390d883a 	add	r6,r7,r4
    98a0:	1810d7fa 	srli	r8,r3,31
    98a4:	297fffc4 	addi	r5,r5,-1
    98a8:	11800316 	blt	r2,r6,98b8 <__ieee754_sqrt+0x90>
    98ac:	1185c83a 	sub	r2,r2,r6
    98b0:	310f883a 	add	r7,r6,r4
    98b4:	4913883a 	add	r9,r9,r4
    98b8:	1085883a 	add	r2,r2,r2
    98bc:	4085883a 	add	r2,r8,r2
    98c0:	18c7883a 	add	r3,r3,r3
    98c4:	2008d07a 	srli	r4,r4,1
    98c8:	283ff41e 	bne	r5,zero,989c <__ieee754_sqrt+0x74>
    98cc:	01200034 	movhi	r4,32768
    98d0:	01800804 	movi	r6,32
    98d4:	0011883a 	mov	r8,zero
    98d8:	0019883a 	mov	r12,zero
    98dc:	201b883a 	mov	r13,r4
    98e0:	00000806 	br	9904 <__ieee754_sqrt+0xdc>
    98e4:	38801726 	beq	r7,r2,9944 <__ieee754_sqrt+0x11c>
    98e8:	180ad7fa 	srli	r5,r3,31
    98ec:	1085883a 	add	r2,r2,r2
    98f0:	31bfffc4 	addi	r6,r6,-1
    98f4:	2885883a 	add	r2,r5,r2
    98f8:	18c7883a 	add	r3,r3,r3
    98fc:	2008d07a 	srli	r4,r4,1
    9900:	30001726 	beq	r6,zero,9960 <__ieee754_sqrt+0x138>
    9904:	230b883a 	add	r5,r4,r12
    9908:	38bff60e 	bge	r7,r2,98e4 <__ieee754_sqrt+0xbc>
    990c:	2ae0002c 	andhi	r11,r5,32768
    9910:	2919883a 	add	r12,r5,r4
    9914:	5b400826 	beq	r11,r13,9938 <__ieee754_sqrt+0x110>
    9918:	3817883a 	mov	r11,r7
    991c:	11c5c83a 	sub	r2,r2,r7
    9920:	1940012e 	bgeu	r3,r5,9928 <__ieee754_sqrt+0x100>
    9924:	10bfffc4 	addi	r2,r2,-1
    9928:	1947c83a 	sub	r3,r3,r5
    992c:	4111883a 	add	r8,r8,r4
    9930:	580f883a 	mov	r7,r11
    9934:	003fec06 	br	98e8 <__ieee754_sqrt+0xc0>
    9938:	603ff716 	blt	r12,zero,9918 <__ieee754_sqrt+0xf0>
    993c:	3ac00044 	addi	r11,r7,1
    9940:	003ff606 	br	991c <__ieee754_sqrt+0xf4>
    9944:	19401936 	bltu	r3,r5,99ac <__ieee754_sqrt+0x184>
    9948:	2ae0002c 	andhi	r11,r5,32768
    994c:	2919883a 	add	r12,r5,r4
    9950:	5b404526 	beq	r11,r13,9a68 <__ieee754_sqrt+0x240>
    9954:	1017883a 	mov	r11,r2
    9958:	0005883a 	mov	r2,zero
    995c:	003ff206 	br	9928 <__ieee754_sqrt+0x100>
    9960:	10c4b03a 	or	r2,r2,r3
    9964:	10000426 	beq	r2,zero,9978 <__ieee754_sqrt+0x150>
    9968:	00bfffc4 	movi	r2,-1
    996c:	40804026 	beq	r8,r2,9a70 <__ieee754_sqrt+0x248>
    9970:	4080004c 	andi	r2,r8,1
    9974:	4091883a 	add	r8,r8,r2
    9978:	4004d07a 	srli	r2,r8,1
    997c:	4807d07a 	srai	r3,r9,1
    9980:	010ff834 	movhi	r4,16352
    9984:	4a40004c 	andi	r9,r9,1
    9988:	1909883a 	add	r4,r3,r4
    998c:	4800091e 	bne	r9,zero,99b4 <__ieee754_sqrt+0x18c>
    9990:	5006953a 	slli	r3,r10,20
    9994:	1907883a 	add	r3,r3,r4
    9998:	dfc00217 	ldw	ra,8(sp)
    999c:	dc400117 	ldw	r17,4(sp)
    99a0:	dc000017 	ldw	r16,0(sp)
    99a4:	dec00304 	addi	sp,sp,12
    99a8:	f800283a 	ret
    99ac:	3805883a 	mov	r2,r7
    99b0:	003fcd06 	br	98e8 <__ieee754_sqrt+0xc0>
    99b4:	10a00034 	orhi	r2,r2,32768
    99b8:	003ff506 	br	9990 <__ieee754_sqrt+0x168>
    99bc:	3004d7fa 	srli	r2,r6,31
    99c0:	18c7883a 	add	r3,r3,r3
    99c4:	318d883a 	add	r6,r6,r6
    99c8:	10c7883a 	add	r3,r2,r3
    99cc:	003faa06 	br	9878 <__ieee754_sqrt+0x50>
    99d0:	00a00034 	movhi	r2,32768
    99d4:	10bfffc4 	addi	r2,r2,-1
    99d8:	2884703a 	and	r2,r5,r2
    99dc:	1104b03a 	or	r2,r2,r4
    99e0:	10001e26 	beq	r2,zero,9a5c <__ieee754_sqrt+0x234>
    99e4:	2800291e 	bne	r5,zero,9a8c <__ieee754_sqrt+0x264>
    99e8:	0015883a 	mov	r10,zero
    99ec:	3020d2fa 	srli	r16,r6,11
    99f0:	52bffac4 	addi	r10,r10,-21
    99f4:	300c957a 	slli	r6,r6,21
    99f8:	803ffc26 	beq	r16,zero,99ec <__ieee754_sqrt+0x1c4>
    99fc:	8080042c 	andhi	r2,r16,16
    9a00:	10001e1e 	bne	r2,zero,9a7c <__ieee754_sqrt+0x254>
    9a04:	0005883a 	mov	r2,zero
    9a08:	00000106 	br	9a10 <__ieee754_sqrt+0x1e8>
    9a0c:	1805883a 	mov	r2,r3
    9a10:	8421883a 	add	r16,r16,r16
    9a14:	8100042c 	andhi	r4,r16,16
    9a18:	10c00044 	addi	r3,r2,1
    9a1c:	203ffb26 	beq	r4,zero,9a0c <__ieee754_sqrt+0x1e4>
    9a20:	01000804 	movi	r4,32
    9a24:	20c9c83a 	sub	r4,r4,r3
    9a28:	3108d83a 	srl	r4,r6,r4
    9a2c:	5095c83a 	sub	r10,r10,r2
    9a30:	30cc983a 	sll	r6,r6,r3
    9a34:	2420b03a 	or	r16,r4,r16
    9a38:	003f8806 	br	985c <__ieee754_sqrt+0x34>
    9a3c:	280f883a 	mov	r7,r5
    9a40:	000b4540 	call	b454 <__muldf3>
    9a44:	880d883a 	mov	r6,r17
    9a48:	800f883a 	mov	r7,r16
    9a4c:	1009883a 	mov	r4,r2
    9a50:	180b883a 	mov	r5,r3
    9a54:	0009f800 	call	9f80 <__adddf3>
    9a58:	003fcf06 	br	9998 <__ieee754_sqrt+0x170>
    9a5c:	2005883a 	mov	r2,r4
    9a60:	2807883a 	mov	r3,r5
    9a64:	003fcc06 	br	9998 <__ieee754_sqrt+0x170>
    9a68:	603fba16 	blt	r12,zero,9954 <__ieee754_sqrt+0x12c>
    9a6c:	003fb306 	br	993c <__ieee754_sqrt+0x114>
    9a70:	4a400044 	addi	r9,r9,1
    9a74:	0005883a 	mov	r2,zero
    9a78:	003fc006 	br	997c <__ieee754_sqrt+0x154>
    9a7c:	01000804 	movi	r4,32
    9a80:	00bfffc4 	movi	r2,-1
    9a84:	0007883a 	mov	r3,zero
    9a88:	003fe706 	br	9a28 <__ieee754_sqrt+0x200>
    9a8c:	200d883a 	mov	r6,r4
    9a90:	280f883a 	mov	r7,r5
    9a94:	000bcc00 	call	bcc0 <__subdf3>
    9a98:	100d883a 	mov	r6,r2
    9a9c:	180f883a 	mov	r7,r3
    9aa0:	1009883a 	mov	r4,r2
    9aa4:	180b883a 	mov	r5,r3
    9aa8:	000a82c0 	call	a82c <__divdf3>
    9aac:	003fba06 	br	9998 <__ieee754_sqrt+0x170>

00009ab0 <fabs>:
    9ab0:	00e00034 	movhi	r3,32768
    9ab4:	18ffffc4 	addi	r3,r3,-1
    9ab8:	2005883a 	mov	r2,r4
    9abc:	28c6703a 	and	r3,r5,r3
    9ac0:	f800283a 	ret

00009ac4 <finite>:
    9ac4:	00a00034 	movhi	r2,32768
    9ac8:	10bfffc4 	addi	r2,r2,-1
    9acc:	288a703a 	and	r5,r5,r2
    9ad0:	00e00434 	movhi	r3,32784
    9ad4:	28c5883a 	add	r2,r5,r3
    9ad8:	1004d7fa 	srli	r2,r2,31
    9adc:	f800283a 	ret

00009ae0 <__fpclassifyd>:
    9ae0:	00a00034 	movhi	r2,32768
    9ae4:	10bfffc4 	addi	r2,r2,-1
    9ae8:	2884703a 	and	r2,r5,r2
    9aec:	10000726 	beq	r2,zero,9b0c <__fpclassifyd+0x2c>
    9af0:	00fffc34 	movhi	r3,65520
    9af4:	019ff834 	movhi	r6,32736
    9af8:	28c7883a 	add	r3,r5,r3
    9afc:	31bfffc4 	addi	r6,r6,-1
    9b00:	30c00536 	bltu	r6,r3,9b18 <__fpclassifyd+0x38>
    9b04:	00800104 	movi	r2,4
    9b08:	f800283a 	ret
    9b0c:	2000021e 	bne	r4,zero,9b18 <__fpclassifyd+0x38>
    9b10:	00800084 	movi	r2,2
    9b14:	f800283a 	ret
    9b18:	00dffc34 	movhi	r3,32752
    9b1c:	019ff834 	movhi	r6,32736
    9b20:	28cb883a 	add	r5,r5,r3
    9b24:	31bfffc4 	addi	r6,r6,-1
    9b28:	317ff62e 	bgeu	r6,r5,9b04 <__fpclassifyd+0x24>
    9b2c:	01400434 	movhi	r5,16
    9b30:	297fffc4 	addi	r5,r5,-1
    9b34:	28800236 	bltu	r5,r2,9b40 <__fpclassifyd+0x60>
    9b38:	008000c4 	movi	r2,3
    9b3c:	f800283a 	ret
    9b40:	10c00226 	beq	r2,r3,9b4c <__fpclassifyd+0x6c>
    9b44:	0005883a 	mov	r2,zero
    9b48:	f800283a 	ret
    9b4c:	2005003a 	cmpeq	r2,r4,zero
    9b50:	f800283a 	ret

00009b54 <matherr>:
    9b54:	0005883a 	mov	r2,zero
    9b58:	f800283a 	ret

00009b5c <nan>:
    9b5c:	0005883a 	mov	r2,zero
    9b60:	00dffe34 	movhi	r3,32760
    9b64:	f800283a 	ret

00009b68 <rint>:
    9b68:	2813d53a 	srai	r9,r5,20
    9b6c:	defff904 	addi	sp,sp,-28
    9b70:	dc000215 	stw	r16,8(sp)
    9b74:	4a41ffcc 	andi	r9,r9,2047
    9b78:	dfc00615 	stw	ra,24(sp)
    9b7c:	dcc00515 	stw	r19,20(sp)
    9b80:	dc800415 	stw	r18,16(sp)
    9b84:	dc400315 	stw	r17,12(sp)
    9b88:	01c004c4 	movi	r7,19
    9b8c:	49bf0044 	addi	r6,r9,-1023
    9b90:	2811883a 	mov	r8,r5
    9b94:	2005883a 	mov	r2,r4
    9b98:	2807883a 	mov	r3,r5
    9b9c:	2015883a 	mov	r10,r4
    9ba0:	2820d7fa 	srli	r16,r5,31
    9ba4:	39801316 	blt	r7,r6,9bf4 <rint+0x8c>
    9ba8:	30003d16 	blt	r6,zero,9ca0 <rint+0x138>
    9bac:	01000434 	movhi	r4,16
    9bb0:	213fffc4 	addi	r4,r4,-1
    9bb4:	2189d83a 	sra	r4,r4,r6
    9bb8:	290a703a 	and	r5,r5,r4
    9bbc:	288ab03a 	or	r5,r5,r2
    9bc0:	28001026 	beq	r5,zero,9c04 <rint+0x9c>
    9bc4:	2008d07a 	srli	r4,r4,1
    9bc8:	4104703a 	and	r2,r8,r4
    9bcc:	1294b03a 	or	r10,r2,r10
    9bd0:	50005626 	beq	r10,zero,9d2c <rint+0x1c4>
    9bd4:	31c05d26 	beq	r6,r7,9d4c <rint+0x1e4>
    9bd8:	0015883a 	mov	r10,zero
    9bdc:	00c00134 	movhi	r3,4
    9be0:	1987d83a 	sra	r3,r3,r6
    9be4:	0108303a 	nor	r4,zero,r4
    9be8:	2210703a 	and	r8,r4,r8
    9bec:	40c6b03a 	or	r3,r8,r3
    9bf0:	00001806 	br	9c54 <rint+0xec>
    9bf4:	01c00cc4 	movi	r7,51
    9bf8:	3980090e 	bge	r7,r6,9c20 <rint+0xb8>
    9bfc:	01c10004 	movi	r7,1024
    9c00:	31c04e26 	beq	r6,r7,9d3c <rint+0x1d4>
    9c04:	dfc00617 	ldw	ra,24(sp)
    9c08:	dcc00517 	ldw	r19,20(sp)
    9c0c:	dc800417 	ldw	r18,16(sp)
    9c10:	dc400317 	ldw	r17,12(sp)
    9c14:	dc000217 	ldw	r16,8(sp)
    9c18:	dec00704 	addi	sp,sp,28
    9c1c:	f800283a 	ret
    9c20:	4a7efb44 	addi	r9,r9,-1043
    9c24:	013fffc4 	movi	r4,-1
    9c28:	2248d83a 	srl	r4,r4,r9
    9c2c:	110a703a 	and	r5,r2,r4
    9c30:	28004026 	beq	r5,zero,9d34 <rint+0x1cc>
    9c34:	2008d07a 	srli	r4,r4,1
    9c38:	1104703a 	and	r2,r2,r4
    9c3c:	10000526 	beq	r2,zero,9c54 <rint+0xec>
    9c40:	00900034 	movhi	r2,16384
    9c44:	1253d83a 	sra	r9,r2,r9
    9c48:	0108303a 	nor	r4,zero,r4
    9c4c:	2294703a 	and	r10,r4,r10
    9c50:	4a94b03a 	or	r10,r9,r10
    9c54:	802090fa 	slli	r16,r16,3
    9c58:	180b883a 	mov	r5,r3
    9c5c:	00c00074 	movhi	r3,1
    9c60:	18f4ec04 	addi	r3,r3,-11344
    9c64:	1c21883a 	add	r16,r3,r16
    9c68:	84400017 	ldw	r17,0(r16)
    9c6c:	84000117 	ldw	r16,4(r16)
    9c70:	5009883a 	mov	r4,r10
    9c74:	880d883a 	mov	r6,r17
    9c78:	800f883a 	mov	r7,r16
    9c7c:	0009f800 	call	9f80 <__adddf3>
    9c80:	d8800015 	stw	r2,0(sp)
    9c84:	d8c00115 	stw	r3,4(sp)
    9c88:	d9000017 	ldw	r4,0(sp)
    9c8c:	d9400117 	ldw	r5,4(sp)
    9c90:	880d883a 	mov	r6,r17
    9c94:	800f883a 	mov	r7,r16
    9c98:	000bcc00 	call	bcc0 <__subdf3>
    9c9c:	003fd906 	br	9c04 <rint+0x9c>
    9ca0:	04600034 	movhi	r17,32768
    9ca4:	8c7fffc4 	addi	r17,r17,-1
    9ca8:	2c46703a 	and	r3,r5,r17
    9cac:	1906b03a 	or	r3,r3,r4
    9cb0:	18002026 	beq	r3,zero,9d34 <rint+0x1cc>
    9cb4:	01800434 	movhi	r6,16
    9cb8:	31bfffc4 	addi	r6,r6,-1
    9cbc:	298c703a 	and	r6,r5,r6
    9cc0:	3104b03a 	or	r2,r6,r4
    9cc4:	008bc83a 	sub	r5,zero,r2
    9cc8:	800690fa 	slli	r3,r16,3
    9ccc:	2884b03a 	or	r2,r5,r2
    9cd0:	01400074 	movhi	r5,1
    9cd4:	2974ec04 	addi	r5,r5,-11344
    9cd8:	28c7883a 	add	r3,r5,r3
    9cdc:	1004d33a 	srli	r2,r2,12
    9ce0:	1cc00017 	ldw	r19,0(r3)
    9ce4:	1c800117 	ldw	r18,4(r3)
    9ce8:	417fffac 	andhi	r5,r8,65534
    9cec:	1080022c 	andhi	r2,r2,8
    9cf0:	980d883a 	mov	r6,r19
    9cf4:	900f883a 	mov	r7,r18
    9cf8:	114ab03a 	or	r5,r2,r5
    9cfc:	0009f800 	call	9f80 <__adddf3>
    9d00:	d8800015 	stw	r2,0(sp)
    9d04:	d8c00115 	stw	r3,4(sp)
    9d08:	d9000017 	ldw	r4,0(sp)
    9d0c:	d9400117 	ldw	r5,4(sp)
    9d10:	980d883a 	mov	r6,r19
    9d14:	900f883a 	mov	r7,r18
    9d18:	000bcc00 	call	bcc0 <__subdf3>
    9d1c:	800897fa 	slli	r4,r16,31
    9d20:	1c46703a 	and	r3,r3,r17
    9d24:	1906b03a 	or	r3,r3,r4
    9d28:	003fb606 	br	9c04 <rint+0x9c>
    9d2c:	0015883a 	mov	r10,zero
    9d30:	003fc806 	br	9c54 <rint+0xec>
    9d34:	4007883a 	mov	r3,r8
    9d38:	003fb206 	br	9c04 <rint+0x9c>
    9d3c:	200d883a 	mov	r6,r4
    9d40:	280f883a 	mov	r7,r5
    9d44:	0009f800 	call	9f80 <__adddf3>
    9d48:	003fae06 	br	9c04 <rint+0x9c>
    9d4c:	02a00034 	movhi	r10,32768
    9d50:	003fa206 	br	9bdc <rint+0x74>

00009d54 <scalbn>:
    9d54:	2a1ffc2c 	andhi	r8,r5,32752
    9d58:	4011d53a 	srai	r8,r8,20
    9d5c:	defffe04 	addi	sp,sp,-8
    9d60:	dc000015 	stw	r16,0(sp)
    9d64:	dfc00115 	stw	ra,4(sp)
    9d68:	280f883a 	mov	r7,r5
    9d6c:	2015883a 	mov	r10,r4
    9d70:	3021883a 	mov	r16,r6
    9d74:	40001e1e 	bne	r8,zero,9df0 <scalbn+0x9c>
    9d78:	00a00034 	movhi	r2,32768
    9d7c:	10bfffc4 	addi	r2,r2,-1
    9d80:	2884703a 	and	r2,r5,r2
    9d84:	1104b03a 	or	r2,r2,r4
    9d88:	10002226 	beq	r2,zero,9e14 <scalbn+0xc0>
    9d8c:	01d0d434 	movhi	r7,17232
    9d90:	000d883a 	mov	r6,zero
    9d94:	000b4540 	call	b454 <__muldf3>
    9d98:	013ffff4 	movhi	r4,65535
    9d9c:	210f2c04 	addi	r4,r4,15536
    9da0:	1015883a 	mov	r10,r2
    9da4:	180f883a 	mov	r7,r3
    9da8:	81002a16 	blt	r16,r4,9e54 <scalbn+0x100>
    9dac:	191ffc2c 	andhi	r4,r3,32752
    9db0:	2009d53a 	srai	r4,r4,20
    9db4:	223ff284 	addi	r8,r4,-54
    9db8:	8211883a 	add	r8,r16,r8
    9dbc:	0081ff84 	movi	r2,2046
    9dc0:	12002f16 	blt	r2,r8,9e80 <scalbn+0x12c>
    9dc4:	0200190e 	bge	zero,r8,9e2c <scalbn+0xd8>
    9dc8:	4010953a 	slli	r8,r8,20
    9dcc:	01600434 	movhi	r5,32784
    9dd0:	297fffc4 	addi	r5,r5,-1
    9dd4:	194e703a 	and	r7,r3,r5
    9dd8:	5005883a 	mov	r2,r10
    9ddc:	3a06b03a 	or	r3,r7,r8
    9de0:	dfc00117 	ldw	ra,4(sp)
    9de4:	dc000017 	ldw	r16,0(sp)
    9de8:	dec00204 	addi	sp,sp,8
    9dec:	f800283a 	ret
    9df0:	0081ffc4 	movi	r2,2047
    9df4:	2807883a 	mov	r3,r5
    9df8:	40bfef1e 	bne	r8,r2,9db8 <scalbn+0x64>
    9dfc:	200d883a 	mov	r6,r4
    9e00:	0009f800 	call	9f80 <__adddf3>
    9e04:	dfc00117 	ldw	ra,4(sp)
    9e08:	dc000017 	ldw	r16,0(sp)
    9e0c:	dec00204 	addi	sp,sp,8
    9e10:	f800283a 	ret
    9e14:	2005883a 	mov	r2,r4
    9e18:	2807883a 	mov	r3,r5
    9e1c:	dfc00117 	ldw	ra,4(sp)
    9e20:	dc000017 	ldw	r16,0(sp)
    9e24:	dec00204 	addi	sp,sp,8
    9e28:	f800283a 	ret
    9e2c:	00bff2c4 	movi	r2,-53
    9e30:	4080240e 	bge	r8,r2,9ec4 <scalbn+0x170>
    9e34:	00b0d414 	movui	r2,50000
    9e38:	14001116 	blt	r2,r16,9e80 <scalbn+0x12c>
    9e3c:	0130be74 	movhi	r4,49913
    9e40:	01406974 	movhi	r5,421
    9e44:	213cd644 	addi	r4,r4,-3239
    9e48:	295b87c4 	addi	r5,r5,28191
    9e4c:	500d883a 	mov	r6,r10
    9e50:	0009ef00 	call	9ef0 <copysign>
    9e54:	01b0be74 	movhi	r6,49913
    9e58:	01c06974 	movhi	r7,421
    9e5c:	31bcd644 	addi	r6,r6,-3239
    9e60:	39db87c4 	addi	r7,r7,28191
    9e64:	1009883a 	mov	r4,r2
    9e68:	180b883a 	mov	r5,r3
    9e6c:	000b4540 	call	b454 <__muldf3>
    9e70:	dfc00117 	ldw	ra,4(sp)
    9e74:	dc000017 	ldw	r16,0(sp)
    9e78:	dec00204 	addi	sp,sp,8
    9e7c:	f800283a 	ret
    9e80:	01220034 	movhi	r4,34816
    9e84:	015f8e34 	movhi	r5,32312
    9e88:	500d883a 	mov	r6,r10
    9e8c:	211d6704 	addi	r4,r4,30108
    9e90:	29790f04 	addi	r5,r5,-7108
    9e94:	0009ef00 	call	9ef0 <copysign>
    9e98:	01a20034 	movhi	r6,34816
    9e9c:	01df8e34 	movhi	r7,32312
    9ea0:	319d6704 	addi	r6,r6,30108
    9ea4:	39f90f04 	addi	r7,r7,-7108
    9ea8:	1009883a 	mov	r4,r2
    9eac:	180b883a 	mov	r5,r3
    9eb0:	000b4540 	call	b454 <__muldf3>
    9eb4:	dfc00117 	ldw	ra,4(sp)
    9eb8:	dc000017 	ldw	r16,0(sp)
    9ebc:	dec00204 	addi	sp,sp,8
    9ec0:	f800283a 	ret
    9ec4:	42000d84 	addi	r8,r8,54
    9ec8:	4012953a 	slli	r9,r8,20
    9ecc:	01e00434 	movhi	r7,32784
    9ed0:	39ffffc4 	addi	r7,r7,-1
    9ed4:	19ca703a 	and	r5,r3,r7
    9ed8:	000d883a 	mov	r6,zero
    9edc:	01cf2434 	movhi	r7,15504
    9ee0:	5009883a 	mov	r4,r10
    9ee4:	494ab03a 	or	r5,r9,r5
    9ee8:	000b4540 	call	b454 <__muldf3>
    9eec:	003fbc06 	br	9de0 <scalbn+0x8c>

00009ef0 <copysign>:
    9ef0:	2005883a 	mov	r2,r4
    9ef4:	01200034 	movhi	r4,32768
    9ef8:	213fffc4 	addi	r4,r4,-1
    9efc:	38e0002c 	andhi	r3,r7,32768
    9f00:	290a703a 	and	r5,r5,r4
    9f04:	28c6b03a 	or	r3,r5,r3
    9f08:	f800283a 	ret

00009f0c <__fixunsdfsi>:
    9f0c:	defffd04 	addi	sp,sp,-12
    9f10:	000d883a 	mov	r6,zero
    9f14:	01d07834 	movhi	r7,16864
    9f18:	dc400115 	stw	r17,4(sp)
    9f1c:	dc000015 	stw	r16,0(sp)
    9f20:	dfc00215 	stw	ra,8(sp)
    9f24:	2023883a 	mov	r17,r4
    9f28:	2821883a 	mov	r16,r5
    9f2c:	000b2840 	call	b284 <__gedf2>
    9f30:	1000080e 	bge	r2,zero,9f54 <__fixunsdfsi+0x48>
    9f34:	8809883a 	mov	r4,r17
    9f38:	800b883a 	mov	r5,r16
    9f3c:	000c5bc0 	call	c5bc <__fixdfsi>
    9f40:	dfc00217 	ldw	ra,8(sp)
    9f44:	dc400117 	ldw	r17,4(sp)
    9f48:	dc000017 	ldw	r16,0(sp)
    9f4c:	dec00304 	addi	sp,sp,12
    9f50:	f800283a 	ret
    9f54:	000d883a 	mov	r6,zero
    9f58:	01d07834 	movhi	r7,16864
    9f5c:	8809883a 	mov	r4,r17
    9f60:	800b883a 	mov	r5,r16
    9f64:	000bcc00 	call	bcc0 <__subdf3>
    9f68:	180b883a 	mov	r5,r3
    9f6c:	1009883a 	mov	r4,r2
    9f70:	000c5bc0 	call	c5bc <__fixdfsi>
    9f74:	00e00034 	movhi	r3,32768
    9f78:	10c5883a 	add	r2,r2,r3
    9f7c:	003ff006 	br	9f40 <__fixunsdfsi+0x34>

00009f80 <__adddf3>:
    9f80:	02c00434 	movhi	r11,16
    9f84:	5affffc4 	addi	r11,r11,-1
    9f88:	2806d7fa 	srli	r3,r5,31
    9f8c:	2ad4703a 	and	r10,r5,r11
    9f90:	3ad2703a 	and	r9,r7,r11
    9f94:	3804d53a 	srli	r2,r7,20
    9f98:	3018d77a 	srli	r12,r6,29
    9f9c:	280ad53a 	srli	r5,r5,20
    9fa0:	501490fa 	slli	r10,r10,3
    9fa4:	2010d77a 	srli	r8,r4,29
    9fa8:	481290fa 	slli	r9,r9,3
    9fac:	380ed7fa 	srli	r7,r7,31
    9fb0:	defffb04 	addi	sp,sp,-20
    9fb4:	dc800215 	stw	r18,8(sp)
    9fb8:	dc400115 	stw	r17,4(sp)
    9fbc:	dc000015 	stw	r16,0(sp)
    9fc0:	dfc00415 	stw	ra,16(sp)
    9fc4:	dcc00315 	stw	r19,12(sp)
    9fc8:	1c803fcc 	andi	r18,r3,255
    9fcc:	2c01ffcc 	andi	r16,r5,2047
    9fd0:	5210b03a 	or	r8,r10,r8
    9fd4:	202290fa 	slli	r17,r4,3
    9fd8:	1081ffcc 	andi	r2,r2,2047
    9fdc:	4b12b03a 	or	r9,r9,r12
    9fe0:	300c90fa 	slli	r6,r6,3
    9fe4:	91c07526 	beq	r18,r7,a1bc <__adddf3+0x23c>
    9fe8:	8087c83a 	sub	r3,r16,r2
    9fec:	00c0ab0e 	bge	zero,r3,a29c <__adddf3+0x31c>
    9ff0:	10002a1e 	bne	r2,zero,a09c <__adddf3+0x11c>
    9ff4:	4984b03a 	or	r2,r9,r6
    9ff8:	1000961e 	bne	r2,zero,a254 <__adddf3+0x2d4>
    9ffc:	888001cc 	andi	r2,r17,7
    a000:	10000726 	beq	r2,zero,a020 <__adddf3+0xa0>
    a004:	888003cc 	andi	r2,r17,15
    a008:	00c00104 	movi	r3,4
    a00c:	10c00426 	beq	r2,r3,a020 <__adddf3+0xa0>
    a010:	88c7883a 	add	r3,r17,r3
    a014:	1c63803a 	cmpltu	r17,r3,r17
    a018:	4451883a 	add	r8,r8,r17
    a01c:	1823883a 	mov	r17,r3
    a020:	4080202c 	andhi	r2,r8,128
    a024:	10005926 	beq	r2,zero,a18c <__adddf3+0x20c>
    a028:	84000044 	addi	r16,r16,1
    a02c:	0081ffc4 	movi	r2,2047
    a030:	8080ba26 	beq	r16,r2,a31c <__adddf3+0x39c>
    a034:	00bfe034 	movhi	r2,65408
    a038:	10bfffc4 	addi	r2,r2,-1
    a03c:	4090703a 	and	r8,r8,r2
    a040:	4004977a 	slli	r2,r8,29
    a044:	4010927a 	slli	r8,r8,9
    a048:	8822d0fa 	srli	r17,r17,3
    a04c:	8401ffcc 	andi	r16,r16,2047
    a050:	4010d33a 	srli	r8,r8,12
    a054:	9007883a 	mov	r3,r18
    a058:	1444b03a 	or	r2,r2,r17
    a05c:	8401ffcc 	andi	r16,r16,2047
    a060:	8020953a 	slli	r16,r16,20
    a064:	18c03fcc 	andi	r3,r3,255
    a068:	01000434 	movhi	r4,16
    a06c:	213fffc4 	addi	r4,r4,-1
    a070:	180697fa 	slli	r3,r3,31
    a074:	4110703a 	and	r8,r8,r4
    a078:	4410b03a 	or	r8,r8,r16
    a07c:	40c6b03a 	or	r3,r8,r3
    a080:	dfc00417 	ldw	ra,16(sp)
    a084:	dcc00317 	ldw	r19,12(sp)
    a088:	dc800217 	ldw	r18,8(sp)
    a08c:	dc400117 	ldw	r17,4(sp)
    a090:	dc000017 	ldw	r16,0(sp)
    a094:	dec00504 	addi	sp,sp,20
    a098:	f800283a 	ret
    a09c:	0081ffc4 	movi	r2,2047
    a0a0:	80bfd626 	beq	r16,r2,9ffc <__adddf3+0x7c>
    a0a4:	4a402034 	orhi	r9,r9,128
    a0a8:	00800e04 	movi	r2,56
    a0ac:	10c09f16 	blt	r2,r3,a32c <__adddf3+0x3ac>
    a0b0:	008007c4 	movi	r2,31
    a0b4:	10c0c216 	blt	r2,r3,a3c0 <__adddf3+0x440>
    a0b8:	00800804 	movi	r2,32
    a0bc:	10c5c83a 	sub	r2,r2,r3
    a0c0:	488a983a 	sll	r5,r9,r2
    a0c4:	30c8d83a 	srl	r4,r6,r3
    a0c8:	3084983a 	sll	r2,r6,r2
    a0cc:	48c6d83a 	srl	r3,r9,r3
    a0d0:	290cb03a 	or	r6,r5,r4
    a0d4:	1004c03a 	cmpne	r2,r2,zero
    a0d8:	308cb03a 	or	r6,r6,r2
    a0dc:	898dc83a 	sub	r6,r17,r6
    a0e0:	89a3803a 	cmpltu	r17,r17,r6
    a0e4:	40d1c83a 	sub	r8,r8,r3
    a0e8:	4451c83a 	sub	r8,r8,r17
    a0ec:	3023883a 	mov	r17,r6
    a0f0:	4080202c 	andhi	r2,r8,128
    a0f4:	10002326 	beq	r2,zero,a184 <__adddf3+0x204>
    a0f8:	04c02034 	movhi	r19,128
    a0fc:	9cffffc4 	addi	r19,r19,-1
    a100:	44e6703a 	and	r19,r8,r19
    a104:	98007626 	beq	r19,zero,a2e0 <__adddf3+0x360>
    a108:	9809883a 	mov	r4,r19
    a10c:	000c7c00 	call	c7c0 <__clzsi2>
    a110:	10fffe04 	addi	r3,r2,-8
    a114:	010007c4 	movi	r4,31
    a118:	20c07716 	blt	r4,r3,a2f8 <__adddf3+0x378>
    a11c:	00800804 	movi	r2,32
    a120:	10c5c83a 	sub	r2,r2,r3
    a124:	8884d83a 	srl	r2,r17,r2
    a128:	98d0983a 	sll	r8,r19,r3
    a12c:	88e2983a 	sll	r17,r17,r3
    a130:	1204b03a 	or	r2,r2,r8
    a134:	1c007416 	blt	r3,r16,a308 <__adddf3+0x388>
    a138:	1c21c83a 	sub	r16,r3,r16
    a13c:	82000044 	addi	r8,r16,1
    a140:	00c007c4 	movi	r3,31
    a144:	1a009116 	blt	r3,r8,a38c <__adddf3+0x40c>
    a148:	00c00804 	movi	r3,32
    a14c:	1a07c83a 	sub	r3,r3,r8
    a150:	8a08d83a 	srl	r4,r17,r8
    a154:	88e2983a 	sll	r17,r17,r3
    a158:	10c6983a 	sll	r3,r2,r3
    a15c:	1210d83a 	srl	r8,r2,r8
    a160:	8804c03a 	cmpne	r2,r17,zero
    a164:	1906b03a 	or	r3,r3,r4
    a168:	18a2b03a 	or	r17,r3,r2
    a16c:	0021883a 	mov	r16,zero
    a170:	003fa206 	br	9ffc <__adddf3+0x7c>
    a174:	1890b03a 	or	r8,r3,r2
    a178:	40017d26 	beq	r8,zero,a770 <__adddf3+0x7f0>
    a17c:	1011883a 	mov	r8,r2
    a180:	1823883a 	mov	r17,r3
    a184:	888001cc 	andi	r2,r17,7
    a188:	103f9e1e 	bne	r2,zero,a004 <__adddf3+0x84>
    a18c:	4004977a 	slli	r2,r8,29
    a190:	8822d0fa 	srli	r17,r17,3
    a194:	4010d0fa 	srli	r8,r8,3
    a198:	9007883a 	mov	r3,r18
    a19c:	1444b03a 	or	r2,r2,r17
    a1a0:	0101ffc4 	movi	r4,2047
    a1a4:	81002426 	beq	r16,r4,a238 <__adddf3+0x2b8>
    a1a8:	8120703a 	and	r16,r16,r4
    a1ac:	01000434 	movhi	r4,16
    a1b0:	213fffc4 	addi	r4,r4,-1
    a1b4:	4110703a 	and	r8,r8,r4
    a1b8:	003fa806 	br	a05c <__adddf3+0xdc>
    a1bc:	8089c83a 	sub	r4,r16,r2
    a1c0:	01005e0e 	bge	zero,r4,a33c <__adddf3+0x3bc>
    a1c4:	10002b26 	beq	r2,zero,a274 <__adddf3+0x2f4>
    a1c8:	0081ffc4 	movi	r2,2047
    a1cc:	80bf8b26 	beq	r16,r2,9ffc <__adddf3+0x7c>
    a1d0:	4a402034 	orhi	r9,r9,128
    a1d4:	00800e04 	movi	r2,56
    a1d8:	1100a40e 	bge	r2,r4,a46c <__adddf3+0x4ec>
    a1dc:	498cb03a 	or	r6,r9,r6
    a1e0:	300ac03a 	cmpne	r5,r6,zero
    a1e4:	0013883a 	mov	r9,zero
    a1e8:	2c4b883a 	add	r5,r5,r17
    a1ec:	2c63803a 	cmpltu	r17,r5,r17
    a1f0:	4a11883a 	add	r8,r9,r8
    a1f4:	8a11883a 	add	r8,r17,r8
    a1f8:	2823883a 	mov	r17,r5
    a1fc:	4080202c 	andhi	r2,r8,128
    a200:	103fe026 	beq	r2,zero,a184 <__adddf3+0x204>
    a204:	84000044 	addi	r16,r16,1
    a208:	0081ffc4 	movi	r2,2047
    a20c:	8080d226 	beq	r16,r2,a558 <__adddf3+0x5d8>
    a210:	00bfe034 	movhi	r2,65408
    a214:	10bfffc4 	addi	r2,r2,-1
    a218:	4090703a 	and	r8,r8,r2
    a21c:	880ad07a 	srli	r5,r17,1
    a220:	400897fa 	slli	r4,r8,31
    a224:	88c0004c 	andi	r3,r17,1
    a228:	28e2b03a 	or	r17,r5,r3
    a22c:	4010d07a 	srli	r8,r8,1
    a230:	2462b03a 	or	r17,r4,r17
    a234:	003f7106 	br	9ffc <__adddf3+0x7c>
    a238:	4088b03a 	or	r4,r8,r2
    a23c:	20014526 	beq	r4,zero,a754 <__adddf3+0x7d4>
    a240:	01000434 	movhi	r4,16
    a244:	42000234 	orhi	r8,r8,8
    a248:	213fffc4 	addi	r4,r4,-1
    a24c:	4110703a 	and	r8,r8,r4
    a250:	003f8206 	br	a05c <__adddf3+0xdc>
    a254:	18ffffc4 	addi	r3,r3,-1
    a258:	1800491e 	bne	r3,zero,a380 <__adddf3+0x400>
    a25c:	898bc83a 	sub	r5,r17,r6
    a260:	8963803a 	cmpltu	r17,r17,r5
    a264:	4251c83a 	sub	r8,r8,r9
    a268:	4451c83a 	sub	r8,r8,r17
    a26c:	2823883a 	mov	r17,r5
    a270:	003f9f06 	br	a0f0 <__adddf3+0x170>
    a274:	4984b03a 	or	r2,r9,r6
    a278:	103f6026 	beq	r2,zero,9ffc <__adddf3+0x7c>
    a27c:	213fffc4 	addi	r4,r4,-1
    a280:	2000931e 	bne	r4,zero,a4d0 <__adddf3+0x550>
    a284:	898d883a 	add	r6,r17,r6
    a288:	3463803a 	cmpltu	r17,r6,r17
    a28c:	4251883a 	add	r8,r8,r9
    a290:	8a11883a 	add	r8,r17,r8
    a294:	3023883a 	mov	r17,r6
    a298:	003fd806 	br	a1fc <__adddf3+0x27c>
    a29c:	1800541e 	bne	r3,zero,a3f0 <__adddf3+0x470>
    a2a0:	80800044 	addi	r2,r16,1
    a2a4:	1081ffcc 	andi	r2,r2,2047
    a2a8:	00c00044 	movi	r3,1
    a2ac:	1880a00e 	bge	r3,r2,a530 <__adddf3+0x5b0>
    a2b0:	8989c83a 	sub	r4,r17,r6
    a2b4:	8905803a 	cmpltu	r2,r17,r4
    a2b8:	4267c83a 	sub	r19,r8,r9
    a2bc:	98a7c83a 	sub	r19,r19,r2
    a2c0:	9880202c 	andhi	r2,r19,128
    a2c4:	10006326 	beq	r2,zero,a454 <__adddf3+0x4d4>
    a2c8:	3463c83a 	sub	r17,r6,r17
    a2cc:	4a07c83a 	sub	r3,r9,r8
    a2d0:	344d803a 	cmpltu	r6,r6,r17
    a2d4:	19a7c83a 	sub	r19,r3,r6
    a2d8:	3825883a 	mov	r18,r7
    a2dc:	983f8a1e 	bne	r19,zero,a108 <__adddf3+0x188>
    a2e0:	8809883a 	mov	r4,r17
    a2e4:	000c7c00 	call	c7c0 <__clzsi2>
    a2e8:	10800804 	addi	r2,r2,32
    a2ec:	10fffe04 	addi	r3,r2,-8
    a2f0:	010007c4 	movi	r4,31
    a2f4:	20ff890e 	bge	r4,r3,a11c <__adddf3+0x19c>
    a2f8:	10bff604 	addi	r2,r2,-40
    a2fc:	8884983a 	sll	r2,r17,r2
    a300:	0023883a 	mov	r17,zero
    a304:	1c3f8c0e 	bge	r3,r16,a138 <__adddf3+0x1b8>
    a308:	023fe034 	movhi	r8,65408
    a30c:	423fffc4 	addi	r8,r8,-1
    a310:	80e1c83a 	sub	r16,r16,r3
    a314:	1210703a 	and	r8,r2,r8
    a318:	003f3806 	br	9ffc <__adddf3+0x7c>
    a31c:	9007883a 	mov	r3,r18
    a320:	0011883a 	mov	r8,zero
    a324:	0005883a 	mov	r2,zero
    a328:	003f4c06 	br	a05c <__adddf3+0xdc>
    a32c:	498cb03a 	or	r6,r9,r6
    a330:	300cc03a 	cmpne	r6,r6,zero
    a334:	0007883a 	mov	r3,zero
    a338:	003f6806 	br	a0dc <__adddf3+0x15c>
    a33c:	20009c1e 	bne	r4,zero,a5b0 <__adddf3+0x630>
    a340:	80800044 	addi	r2,r16,1
    a344:	1141ffcc 	andi	r5,r2,2047
    a348:	01000044 	movi	r4,1
    a34c:	2140670e 	bge	r4,r5,a4ec <__adddf3+0x56c>
    a350:	0101ffc4 	movi	r4,2047
    a354:	11007f26 	beq	r2,r4,a554 <__adddf3+0x5d4>
    a358:	898d883a 	add	r6,r17,r6
    a35c:	4247883a 	add	r3,r8,r9
    a360:	3451803a 	cmpltu	r8,r6,r17
    a364:	40d1883a 	add	r8,r8,r3
    a368:	402297fa 	slli	r17,r8,31
    a36c:	300cd07a 	srli	r6,r6,1
    a370:	4010d07a 	srli	r8,r8,1
    a374:	1021883a 	mov	r16,r2
    a378:	89a2b03a 	or	r17,r17,r6
    a37c:	003f1f06 	br	9ffc <__adddf3+0x7c>
    a380:	0081ffc4 	movi	r2,2047
    a384:	80bf481e 	bne	r16,r2,a0a8 <__adddf3+0x128>
    a388:	003f1c06 	br	9ffc <__adddf3+0x7c>
    a38c:	843ff844 	addi	r16,r16,-31
    a390:	01000804 	movi	r4,32
    a394:	1406d83a 	srl	r3,r2,r16
    a398:	41005026 	beq	r8,r4,a4dc <__adddf3+0x55c>
    a39c:	01001004 	movi	r4,64
    a3a0:	2211c83a 	sub	r8,r4,r8
    a3a4:	1204983a 	sll	r2,r2,r8
    a3a8:	88a2b03a 	or	r17,r17,r2
    a3ac:	8822c03a 	cmpne	r17,r17,zero
    a3b0:	1c62b03a 	or	r17,r3,r17
    a3b4:	0011883a 	mov	r8,zero
    a3b8:	0021883a 	mov	r16,zero
    a3bc:	003f7106 	br	a184 <__adddf3+0x204>
    a3c0:	193ff804 	addi	r4,r3,-32
    a3c4:	00800804 	movi	r2,32
    a3c8:	4908d83a 	srl	r4,r9,r4
    a3cc:	18804526 	beq	r3,r2,a4e4 <__adddf3+0x564>
    a3d0:	00801004 	movi	r2,64
    a3d4:	10c5c83a 	sub	r2,r2,r3
    a3d8:	4886983a 	sll	r3,r9,r2
    a3dc:	198cb03a 	or	r6,r3,r6
    a3e0:	300cc03a 	cmpne	r6,r6,zero
    a3e4:	218cb03a 	or	r6,r4,r6
    a3e8:	0007883a 	mov	r3,zero
    a3ec:	003f3b06 	br	a0dc <__adddf3+0x15c>
    a3f0:	80002a26 	beq	r16,zero,a49c <__adddf3+0x51c>
    a3f4:	0101ffc4 	movi	r4,2047
    a3f8:	11006826 	beq	r2,r4,a59c <__adddf3+0x61c>
    a3fc:	00c7c83a 	sub	r3,zero,r3
    a400:	42002034 	orhi	r8,r8,128
    a404:	01000e04 	movi	r4,56
    a408:	20c07c16 	blt	r4,r3,a5fc <__adddf3+0x67c>
    a40c:	010007c4 	movi	r4,31
    a410:	20c0da16 	blt	r4,r3,a77c <__adddf3+0x7fc>
    a414:	01000804 	movi	r4,32
    a418:	20c9c83a 	sub	r4,r4,r3
    a41c:	4114983a 	sll	r10,r8,r4
    a420:	88cad83a 	srl	r5,r17,r3
    a424:	8908983a 	sll	r4,r17,r4
    a428:	40c6d83a 	srl	r3,r8,r3
    a42c:	5162b03a 	or	r17,r10,r5
    a430:	2008c03a 	cmpne	r4,r4,zero
    a434:	8922b03a 	or	r17,r17,r4
    a438:	3463c83a 	sub	r17,r6,r17
    a43c:	48c7c83a 	sub	r3,r9,r3
    a440:	344d803a 	cmpltu	r6,r6,r17
    a444:	1991c83a 	sub	r8,r3,r6
    a448:	1021883a 	mov	r16,r2
    a44c:	3825883a 	mov	r18,r7
    a450:	003f2706 	br	a0f0 <__adddf3+0x170>
    a454:	24d0b03a 	or	r8,r4,r19
    a458:	40001b1e 	bne	r8,zero,a4c8 <__adddf3+0x548>
    a45c:	0005883a 	mov	r2,zero
    a460:	0007883a 	mov	r3,zero
    a464:	0021883a 	mov	r16,zero
    a468:	003f4d06 	br	a1a0 <__adddf3+0x220>
    a46c:	008007c4 	movi	r2,31
    a470:	11003c16 	blt	r2,r4,a564 <__adddf3+0x5e4>
    a474:	00800804 	movi	r2,32
    a478:	1105c83a 	sub	r2,r2,r4
    a47c:	488e983a 	sll	r7,r9,r2
    a480:	310ad83a 	srl	r5,r6,r4
    a484:	3084983a 	sll	r2,r6,r2
    a488:	4912d83a 	srl	r9,r9,r4
    a48c:	394ab03a 	or	r5,r7,r5
    a490:	1004c03a 	cmpne	r2,r2,zero
    a494:	288ab03a 	or	r5,r5,r2
    a498:	003f5306 	br	a1e8 <__adddf3+0x268>
    a49c:	4448b03a 	or	r4,r8,r17
    a4a0:	20003e26 	beq	r4,zero,a59c <__adddf3+0x61c>
    a4a4:	00c6303a 	nor	r3,zero,r3
    a4a8:	18003a1e 	bne	r3,zero,a594 <__adddf3+0x614>
    a4ac:	3463c83a 	sub	r17,r6,r17
    a4b0:	4a07c83a 	sub	r3,r9,r8
    a4b4:	344d803a 	cmpltu	r6,r6,r17
    a4b8:	1991c83a 	sub	r8,r3,r6
    a4bc:	1021883a 	mov	r16,r2
    a4c0:	3825883a 	mov	r18,r7
    a4c4:	003f0a06 	br	a0f0 <__adddf3+0x170>
    a4c8:	2023883a 	mov	r17,r4
    a4cc:	003f0d06 	br	a104 <__adddf3+0x184>
    a4d0:	0081ffc4 	movi	r2,2047
    a4d4:	80bf3f1e 	bne	r16,r2,a1d4 <__adddf3+0x254>
    a4d8:	003ec806 	br	9ffc <__adddf3+0x7c>
    a4dc:	0005883a 	mov	r2,zero
    a4e0:	003fb106 	br	a3a8 <__adddf3+0x428>
    a4e4:	0007883a 	mov	r3,zero
    a4e8:	003fbc06 	br	a3dc <__adddf3+0x45c>
    a4ec:	4444b03a 	or	r2,r8,r17
    a4f0:	8000871e 	bne	r16,zero,a710 <__adddf3+0x790>
    a4f4:	1000ba26 	beq	r2,zero,a7e0 <__adddf3+0x860>
    a4f8:	4984b03a 	or	r2,r9,r6
    a4fc:	103ebf26 	beq	r2,zero,9ffc <__adddf3+0x7c>
    a500:	8985883a 	add	r2,r17,r6
    a504:	4247883a 	add	r3,r8,r9
    a508:	1451803a 	cmpltu	r8,r2,r17
    a50c:	40d1883a 	add	r8,r8,r3
    a510:	40c0202c 	andhi	r3,r8,128
    a514:	1023883a 	mov	r17,r2
    a518:	183f1a26 	beq	r3,zero,a184 <__adddf3+0x204>
    a51c:	00bfe034 	movhi	r2,65408
    a520:	10bfffc4 	addi	r2,r2,-1
    a524:	2021883a 	mov	r16,r4
    a528:	4090703a 	and	r8,r8,r2
    a52c:	003eb306 	br	9ffc <__adddf3+0x7c>
    a530:	4444b03a 	or	r2,r8,r17
    a534:	8000291e 	bne	r16,zero,a5dc <__adddf3+0x65c>
    a538:	10004b1e 	bne	r2,zero,a668 <__adddf3+0x6e8>
    a53c:	4990b03a 	or	r8,r9,r6
    a540:	40008b26 	beq	r8,zero,a770 <__adddf3+0x7f0>
    a544:	4811883a 	mov	r8,r9
    a548:	3023883a 	mov	r17,r6
    a54c:	3825883a 	mov	r18,r7
    a550:	003eaa06 	br	9ffc <__adddf3+0x7c>
    a554:	1021883a 	mov	r16,r2
    a558:	0011883a 	mov	r8,zero
    a55c:	0005883a 	mov	r2,zero
    a560:	003f0f06 	br	a1a0 <__adddf3+0x220>
    a564:	217ff804 	addi	r5,r4,-32
    a568:	00800804 	movi	r2,32
    a56c:	494ad83a 	srl	r5,r9,r5
    a570:	20807d26 	beq	r4,r2,a768 <__adddf3+0x7e8>
    a574:	00801004 	movi	r2,64
    a578:	1109c83a 	sub	r4,r2,r4
    a57c:	4912983a 	sll	r9,r9,r4
    a580:	498cb03a 	or	r6,r9,r6
    a584:	300cc03a 	cmpne	r6,r6,zero
    a588:	298ab03a 	or	r5,r5,r6
    a58c:	0013883a 	mov	r9,zero
    a590:	003f1506 	br	a1e8 <__adddf3+0x268>
    a594:	0101ffc4 	movi	r4,2047
    a598:	113f9a1e 	bne	r2,r4,a404 <__adddf3+0x484>
    a59c:	4811883a 	mov	r8,r9
    a5a0:	3023883a 	mov	r17,r6
    a5a4:	1021883a 	mov	r16,r2
    a5a8:	3825883a 	mov	r18,r7
    a5ac:	003e9306 	br	9ffc <__adddf3+0x7c>
    a5b0:	8000161e 	bne	r16,zero,a60c <__adddf3+0x68c>
    a5b4:	444ab03a 	or	r5,r8,r17
    a5b8:	28005126 	beq	r5,zero,a700 <__adddf3+0x780>
    a5bc:	0108303a 	nor	r4,zero,r4
    a5c0:	20004d1e 	bne	r4,zero,a6f8 <__adddf3+0x778>
    a5c4:	89a3883a 	add	r17,r17,r6
    a5c8:	4253883a 	add	r9,r8,r9
    a5cc:	898d803a 	cmpltu	r6,r17,r6
    a5d0:	3251883a 	add	r8,r6,r9
    a5d4:	1021883a 	mov	r16,r2
    a5d8:	003f0806 	br	a1fc <__adddf3+0x27c>
    a5dc:	1000301e 	bne	r2,zero,a6a0 <__adddf3+0x720>
    a5e0:	4984b03a 	or	r2,r9,r6
    a5e4:	10007126 	beq	r2,zero,a7ac <__adddf3+0x82c>
    a5e8:	4811883a 	mov	r8,r9
    a5ec:	3023883a 	mov	r17,r6
    a5f0:	3825883a 	mov	r18,r7
    a5f4:	0401ffc4 	movi	r16,2047
    a5f8:	003e8006 	br	9ffc <__adddf3+0x7c>
    a5fc:	4462b03a 	or	r17,r8,r17
    a600:	8822c03a 	cmpne	r17,r17,zero
    a604:	0007883a 	mov	r3,zero
    a608:	003f8b06 	br	a438 <__adddf3+0x4b8>
    a60c:	0141ffc4 	movi	r5,2047
    a610:	11403b26 	beq	r2,r5,a700 <__adddf3+0x780>
    a614:	0109c83a 	sub	r4,zero,r4
    a618:	42002034 	orhi	r8,r8,128
    a61c:	01400e04 	movi	r5,56
    a620:	29006716 	blt	r5,r4,a7c0 <__adddf3+0x840>
    a624:	014007c4 	movi	r5,31
    a628:	29007016 	blt	r5,r4,a7ec <__adddf3+0x86c>
    a62c:	01400804 	movi	r5,32
    a630:	290bc83a 	sub	r5,r5,r4
    a634:	4154983a 	sll	r10,r8,r5
    a638:	890ed83a 	srl	r7,r17,r4
    a63c:	894a983a 	sll	r5,r17,r5
    a640:	4108d83a 	srl	r4,r8,r4
    a644:	51e2b03a 	or	r17,r10,r7
    a648:	280ac03a 	cmpne	r5,r5,zero
    a64c:	8962b03a 	or	r17,r17,r5
    a650:	89a3883a 	add	r17,r17,r6
    a654:	2253883a 	add	r9,r4,r9
    a658:	898d803a 	cmpltu	r6,r17,r6
    a65c:	3251883a 	add	r8,r6,r9
    a660:	1021883a 	mov	r16,r2
    a664:	003ee506 	br	a1fc <__adddf3+0x27c>
    a668:	4984b03a 	or	r2,r9,r6
    a66c:	103e6326 	beq	r2,zero,9ffc <__adddf3+0x7c>
    a670:	8987c83a 	sub	r3,r17,r6
    a674:	88c9803a 	cmpltu	r4,r17,r3
    a678:	4245c83a 	sub	r2,r8,r9
    a67c:	1105c83a 	sub	r2,r2,r4
    a680:	1100202c 	andhi	r4,r2,128
    a684:	203ebb26 	beq	r4,zero,a174 <__adddf3+0x1f4>
    a688:	3463c83a 	sub	r17,r6,r17
    a68c:	4a07c83a 	sub	r3,r9,r8
    a690:	344d803a 	cmpltu	r6,r6,r17
    a694:	1991c83a 	sub	r8,r3,r6
    a698:	3825883a 	mov	r18,r7
    a69c:	003e5706 	br	9ffc <__adddf3+0x7c>
    a6a0:	4984b03a 	or	r2,r9,r6
    a6a4:	10002e26 	beq	r2,zero,a760 <__adddf3+0x7e0>
    a6a8:	4004d0fa 	srli	r2,r8,3
    a6ac:	8822d0fa 	srli	r17,r17,3
    a6b0:	4010977a 	slli	r8,r8,29
    a6b4:	10c0022c 	andhi	r3,r2,8
    a6b8:	4462b03a 	or	r17,r8,r17
    a6bc:	18000826 	beq	r3,zero,a6e0 <__adddf3+0x760>
    a6c0:	4808d0fa 	srli	r4,r9,3
    a6c4:	20c0022c 	andhi	r3,r4,8
    a6c8:	1800051e 	bne	r3,zero,a6e0 <__adddf3+0x760>
    a6cc:	300cd0fa 	srli	r6,r6,3
    a6d0:	4806977a 	slli	r3,r9,29
    a6d4:	2005883a 	mov	r2,r4
    a6d8:	3825883a 	mov	r18,r7
    a6dc:	19a2b03a 	or	r17,r3,r6
    a6e0:	8810d77a 	srli	r8,r17,29
    a6e4:	100490fa 	slli	r2,r2,3
    a6e8:	882290fa 	slli	r17,r17,3
    a6ec:	0401ffc4 	movi	r16,2047
    a6f0:	4090b03a 	or	r8,r8,r2
    a6f4:	003e4106 	br	9ffc <__adddf3+0x7c>
    a6f8:	0141ffc4 	movi	r5,2047
    a6fc:	117fc71e 	bne	r2,r5,a61c <__adddf3+0x69c>
    a700:	4811883a 	mov	r8,r9
    a704:	3023883a 	mov	r17,r6
    a708:	1021883a 	mov	r16,r2
    a70c:	003e3b06 	br	9ffc <__adddf3+0x7c>
    a710:	10002f26 	beq	r2,zero,a7d0 <__adddf3+0x850>
    a714:	4984b03a 	or	r2,r9,r6
    a718:	10001126 	beq	r2,zero,a760 <__adddf3+0x7e0>
    a71c:	4004d0fa 	srli	r2,r8,3
    a720:	8822d0fa 	srli	r17,r17,3
    a724:	4010977a 	slli	r8,r8,29
    a728:	10c0022c 	andhi	r3,r2,8
    a72c:	4462b03a 	or	r17,r8,r17
    a730:	183feb26 	beq	r3,zero,a6e0 <__adddf3+0x760>
    a734:	4808d0fa 	srli	r4,r9,3
    a738:	20c0022c 	andhi	r3,r4,8
    a73c:	183fe81e 	bne	r3,zero,a6e0 <__adddf3+0x760>
    a740:	300cd0fa 	srli	r6,r6,3
    a744:	4806977a 	slli	r3,r9,29
    a748:	2005883a 	mov	r2,r4
    a74c:	19a2b03a 	or	r17,r3,r6
    a750:	003fe306 	br	a6e0 <__adddf3+0x760>
    a754:	0011883a 	mov	r8,zero
    a758:	0005883a 	mov	r2,zero
    a75c:	003e3f06 	br	a05c <__adddf3+0xdc>
    a760:	0401ffc4 	movi	r16,2047
    a764:	003e2506 	br	9ffc <__adddf3+0x7c>
    a768:	0013883a 	mov	r9,zero
    a76c:	003f8406 	br	a580 <__adddf3+0x600>
    a770:	0005883a 	mov	r2,zero
    a774:	0007883a 	mov	r3,zero
    a778:	003e8906 	br	a1a0 <__adddf3+0x220>
    a77c:	197ff804 	addi	r5,r3,-32
    a780:	01000804 	movi	r4,32
    a784:	414ad83a 	srl	r5,r8,r5
    a788:	19002426 	beq	r3,r4,a81c <__adddf3+0x89c>
    a78c:	01001004 	movi	r4,64
    a790:	20c7c83a 	sub	r3,r4,r3
    a794:	40c6983a 	sll	r3,r8,r3
    a798:	1c46b03a 	or	r3,r3,r17
    a79c:	1806c03a 	cmpne	r3,r3,zero
    a7a0:	28e2b03a 	or	r17,r5,r3
    a7a4:	0007883a 	mov	r3,zero
    a7a8:	003f2306 	br	a438 <__adddf3+0x4b8>
    a7ac:	0007883a 	mov	r3,zero
    a7b0:	5811883a 	mov	r8,r11
    a7b4:	00bfffc4 	movi	r2,-1
    a7b8:	0401ffc4 	movi	r16,2047
    a7bc:	003e7806 	br	a1a0 <__adddf3+0x220>
    a7c0:	4462b03a 	or	r17,r8,r17
    a7c4:	8822c03a 	cmpne	r17,r17,zero
    a7c8:	0009883a 	mov	r4,zero
    a7cc:	003fa006 	br	a650 <__adddf3+0x6d0>
    a7d0:	4811883a 	mov	r8,r9
    a7d4:	3023883a 	mov	r17,r6
    a7d8:	0401ffc4 	movi	r16,2047
    a7dc:	003e0706 	br	9ffc <__adddf3+0x7c>
    a7e0:	4811883a 	mov	r8,r9
    a7e4:	3023883a 	mov	r17,r6
    a7e8:	003e0406 	br	9ffc <__adddf3+0x7c>
    a7ec:	21fff804 	addi	r7,r4,-32
    a7f0:	01400804 	movi	r5,32
    a7f4:	41ced83a 	srl	r7,r8,r7
    a7f8:	21400a26 	beq	r4,r5,a824 <__adddf3+0x8a4>
    a7fc:	01401004 	movi	r5,64
    a800:	2909c83a 	sub	r4,r5,r4
    a804:	4108983a 	sll	r4,r8,r4
    a808:	2448b03a 	or	r4,r4,r17
    a80c:	2008c03a 	cmpne	r4,r4,zero
    a810:	3922b03a 	or	r17,r7,r4
    a814:	0009883a 	mov	r4,zero
    a818:	003f8d06 	br	a650 <__adddf3+0x6d0>
    a81c:	0007883a 	mov	r3,zero
    a820:	003fdd06 	br	a798 <__adddf3+0x818>
    a824:	0009883a 	mov	r4,zero
    a828:	003ff706 	br	a808 <__adddf3+0x888>

0000a82c <__divdf3>:
    a82c:	defff004 	addi	sp,sp,-64
    a830:	dc800815 	stw	r18,32(sp)
    a834:	2824d53a 	srli	r18,r5,20
    a838:	dd800c15 	stw	r22,48(sp)
    a83c:	282cd7fa 	srli	r22,r5,31
    a840:	dc000615 	stw	r16,24(sp)
    a844:	04000434 	movhi	r16,16
    a848:	843fffc4 	addi	r16,r16,-1
    a84c:	dfc00f15 	stw	ra,60(sp)
    a850:	df000e15 	stw	fp,56(sp)
    a854:	ddc00d15 	stw	r23,52(sp)
    a858:	dd400b15 	stw	r21,44(sp)
    a85c:	dd000a15 	stw	r20,40(sp)
    a860:	dcc00915 	stw	r19,36(sp)
    a864:	dc400715 	stw	r17,28(sp)
    a868:	9481ffcc 	andi	r18,r18,2047
    a86c:	2c20703a 	and	r16,r5,r16
    a870:	b2003fcc 	andi	r8,r22,255
    a874:	90006126 	beq	r18,zero,a9fc <__divdf3+0x1d0>
    a878:	0081ffc4 	movi	r2,2047
    a87c:	202b883a 	mov	r21,r4
    a880:	90803726 	beq	r18,r2,a960 <__divdf3+0x134>
    a884:	80800434 	orhi	r2,r16,16
    a888:	100490fa 	slli	r2,r2,3
    a88c:	2020d77a 	srli	r16,r4,29
    a890:	202a90fa 	slli	r21,r4,3
    a894:	94bf0044 	addi	r18,r18,-1023
    a898:	80a0b03a 	or	r16,r16,r2
    a89c:	0013883a 	mov	r9,zero
    a8a0:	000b883a 	mov	r5,zero
    a8a4:	3806d53a 	srli	r3,r7,20
    a8a8:	382ed7fa 	srli	r23,r7,31
    a8ac:	04400434 	movhi	r17,16
    a8b0:	8c7fffc4 	addi	r17,r17,-1
    a8b4:	18c1ffcc 	andi	r3,r3,2047
    a8b8:	3029883a 	mov	r20,r6
    a8bc:	3c62703a 	and	r17,r7,r17
    a8c0:	bf003fcc 	andi	fp,r23,255
    a8c4:	18006e26 	beq	r3,zero,aa80 <__divdf3+0x254>
    a8c8:	0081ffc4 	movi	r2,2047
    a8cc:	18806626 	beq	r3,r2,aa68 <__divdf3+0x23c>
    a8d0:	88800434 	orhi	r2,r17,16
    a8d4:	100490fa 	slli	r2,r2,3
    a8d8:	3022d77a 	srli	r17,r6,29
    a8dc:	302890fa 	slli	r20,r6,3
    a8e0:	18ff0044 	addi	r3,r3,-1023
    a8e4:	88a2b03a 	or	r17,r17,r2
    a8e8:	000f883a 	mov	r7,zero
    a8ec:	b5e6f03a 	xor	r19,r22,r23
    a8f0:	3a4cb03a 	or	r6,r7,r9
    a8f4:	008003c4 	movi	r2,15
    a8f8:	9809883a 	mov	r4,r19
    a8fc:	90c7c83a 	sub	r3,r18,r3
    a900:	9cc03fcc 	andi	r19,r19,255
    a904:	11809636 	bltu	r2,r6,ab60 <__divdf3+0x334>
    a908:	300c90ba 	slli	r6,r6,2
    a90c:	00800074 	movhi	r2,1
    a910:	10aa4804 	addi	r2,r2,-22240
    a914:	308d883a 	add	r6,r6,r2
    a918:	30800017 	ldw	r2,0(r6)
    a91c:	1000683a 	jmp	r2
    a920:	0000ab60 	cmpeqi	zero,zero,685
    a924:	0000a998 	cmpnei	zero,zero,678
    a928:	0000ab50 	cmplti	zero,zero,685
    a92c:	0000a98c 	andi	zero,zero,678
    a930:	0000ab50 	cmplti	zero,zero,685
    a934:	0000ab24 	muli	zero,zero,684
    a938:	0000ab50 	cmplti	zero,zero,685
    a93c:	0000a98c 	andi	zero,zero,678
    a940:	0000a998 	cmpnei	zero,zero,678
    a944:	0000a998 	cmpnei	zero,zero,678
    a948:	0000ab24 	muli	zero,zero,684
    a94c:	0000a98c 	andi	zero,zero,678
    a950:	0000a97c 	xorhi	zero,zero,677
    a954:	0000a97c 	xorhi	zero,zero,677
    a958:	0000a97c 	xorhi	zero,zero,677
    a95c:	0000aee8 	cmpgeui	zero,zero,699
    a960:	2404b03a 	or	r2,r4,r16
    a964:	10006c1e 	bne	r2,zero,ab18 <__divdf3+0x2ec>
    a968:	02400204 	movi	r9,8
    a96c:	0021883a 	mov	r16,zero
    a970:	002b883a 	mov	r21,zero
    a974:	01400084 	movi	r5,2
    a978:	003fca06 	br	a8a4 <__divdf3+0x78>
    a97c:	8023883a 	mov	r17,r16
    a980:	a829883a 	mov	r20,r21
    a984:	4039883a 	mov	fp,r8
    a988:	280f883a 	mov	r7,r5
    a98c:	00800084 	movi	r2,2
    a990:	3881601e 	bne	r7,r2,af14 <__divdf3+0x6e8>
    a994:	e027883a 	mov	r19,fp
    a998:	9900004c 	andi	r4,r19,1
    a99c:	0081ffc4 	movi	r2,2047
    a9a0:	0021883a 	mov	r16,zero
    a9a4:	002b883a 	mov	r21,zero
    a9a8:	1004953a 	slli	r2,r2,20
    a9ac:	20c03fcc 	andi	r3,r4,255
    a9b0:	01400434 	movhi	r5,16
    a9b4:	297fffc4 	addi	r5,r5,-1
    a9b8:	180697fa 	slli	r3,r3,31
    a9bc:	8160703a 	and	r16,r16,r5
    a9c0:	80a0b03a 	or	r16,r16,r2
    a9c4:	80c6b03a 	or	r3,r16,r3
    a9c8:	a805883a 	mov	r2,r21
    a9cc:	dfc00f17 	ldw	ra,60(sp)
    a9d0:	df000e17 	ldw	fp,56(sp)
    a9d4:	ddc00d17 	ldw	r23,52(sp)
    a9d8:	dd800c17 	ldw	r22,48(sp)
    a9dc:	dd400b17 	ldw	r21,44(sp)
    a9e0:	dd000a17 	ldw	r20,40(sp)
    a9e4:	dcc00917 	ldw	r19,36(sp)
    a9e8:	dc800817 	ldw	r18,32(sp)
    a9ec:	dc400717 	ldw	r17,28(sp)
    a9f0:	dc000617 	ldw	r16,24(sp)
    a9f4:	dec01004 	addi	sp,sp,64
    a9f8:	f800283a 	ret
    a9fc:	2404b03a 	or	r2,r4,r16
    aa00:	2023883a 	mov	r17,r4
    aa04:	10003f26 	beq	r2,zero,ab04 <__divdf3+0x2d8>
    aa08:	80015e26 	beq	r16,zero,af84 <__divdf3+0x758>
    aa0c:	8009883a 	mov	r4,r16
    aa10:	d9800215 	stw	r6,8(sp)
    aa14:	d9c00515 	stw	r7,20(sp)
    aa18:	da000415 	stw	r8,16(sp)
    aa1c:	000c7c00 	call	c7c0 <__clzsi2>
    aa20:	d9800217 	ldw	r6,8(sp)
    aa24:	d9c00517 	ldw	r7,20(sp)
    aa28:	da000417 	ldw	r8,16(sp)
    aa2c:	113ffd44 	addi	r4,r2,-11
    aa30:	00c00704 	movi	r3,28
    aa34:	19014f16 	blt	r3,r4,af74 <__divdf3+0x748>
    aa38:	00c00744 	movi	r3,29
    aa3c:	157ffe04 	addi	r21,r2,-8
    aa40:	1907c83a 	sub	r3,r3,r4
    aa44:	8560983a 	sll	r16,r16,r21
    aa48:	88c6d83a 	srl	r3,r17,r3
    aa4c:	8d6a983a 	sll	r21,r17,r21
    aa50:	1c20b03a 	or	r16,r3,r16
    aa54:	1080fcc4 	addi	r2,r2,1011
    aa58:	00a5c83a 	sub	r18,zero,r2
    aa5c:	0013883a 	mov	r9,zero
    aa60:	000b883a 	mov	r5,zero
    aa64:	003f8f06 	br	a8a4 <__divdf3+0x78>
    aa68:	3444b03a 	or	r2,r6,r17
    aa6c:	1000231e 	bne	r2,zero,aafc <__divdf3+0x2d0>
    aa70:	0023883a 	mov	r17,zero
    aa74:	0029883a 	mov	r20,zero
    aa78:	01c00084 	movi	r7,2
    aa7c:	003f9b06 	br	a8ec <__divdf3+0xc0>
    aa80:	3444b03a 	or	r2,r6,r17
    aa84:	10001926 	beq	r2,zero,aaec <__divdf3+0x2c0>
    aa88:	88014b26 	beq	r17,zero,afb8 <__divdf3+0x78c>
    aa8c:	8809883a 	mov	r4,r17
    aa90:	d9400115 	stw	r5,4(sp)
    aa94:	d9800215 	stw	r6,8(sp)
    aa98:	da000415 	stw	r8,16(sp)
    aa9c:	da400315 	stw	r9,12(sp)
    aaa0:	000c7c00 	call	c7c0 <__clzsi2>
    aaa4:	d9400117 	ldw	r5,4(sp)
    aaa8:	d9800217 	ldw	r6,8(sp)
    aaac:	da000417 	ldw	r8,16(sp)
    aab0:	da400317 	ldw	r9,12(sp)
    aab4:	113ffd44 	addi	r4,r2,-11
    aab8:	00c00704 	movi	r3,28
    aabc:	19013a16 	blt	r3,r4,afa8 <__divdf3+0x77c>
    aac0:	00c00744 	movi	r3,29
    aac4:	153ffe04 	addi	r20,r2,-8
    aac8:	1907c83a 	sub	r3,r3,r4
    aacc:	8d22983a 	sll	r17,r17,r20
    aad0:	30c6d83a 	srl	r3,r6,r3
    aad4:	3528983a 	sll	r20,r6,r20
    aad8:	1c62b03a 	or	r17,r3,r17
    aadc:	1080fcc4 	addi	r2,r2,1011
    aae0:	0087c83a 	sub	r3,zero,r2
    aae4:	000f883a 	mov	r7,zero
    aae8:	003f8006 	br	a8ec <__divdf3+0xc0>
    aaec:	0023883a 	mov	r17,zero
    aaf0:	0029883a 	mov	r20,zero
    aaf4:	01c00044 	movi	r7,1
    aaf8:	003f7c06 	br	a8ec <__divdf3+0xc0>
    aafc:	01c000c4 	movi	r7,3
    ab00:	003f7a06 	br	a8ec <__divdf3+0xc0>
    ab04:	02400104 	movi	r9,4
    ab08:	0021883a 	mov	r16,zero
    ab0c:	002b883a 	mov	r21,zero
    ab10:	01400044 	movi	r5,1
    ab14:	003f6306 	br	a8a4 <__divdf3+0x78>
    ab18:	02400304 	movi	r9,12
    ab1c:	014000c4 	movi	r5,3
    ab20:	003f6006 	br	a8a4 <__divdf3+0x78>
    ab24:	04000434 	movhi	r16,16
    ab28:	0009883a 	mov	r4,zero
    ab2c:	843fffc4 	addi	r16,r16,-1
    ab30:	057fffc4 	movi	r21,-1
    ab34:	0081ffc4 	movi	r2,2047
    ab38:	003f9b06 	br	a9a8 <__divdf3+0x17c>
    ab3c:	00c00044 	movi	r3,1
    ab40:	1887c83a 	sub	r3,r3,r2
    ab44:	01000e04 	movi	r4,56
    ab48:	20c1530e 	bge	r4,r3,b098 <__divdf3+0x86c>
    ab4c:	9900004c 	andi	r4,r19,1
    ab50:	0005883a 	mov	r2,zero
    ab54:	0021883a 	mov	r16,zero
    ab58:	002b883a 	mov	r21,zero
    ab5c:	003f9206 	br	a9a8 <__divdf3+0x17c>
    ab60:	8c012e36 	bltu	r17,r16,b01c <__divdf3+0x7f0>
    ab64:	84412c26 	beq	r16,r17,b018 <__divdf3+0x7ec>
    ab68:	a82f883a 	mov	r23,r21
    ab6c:	18ffffc4 	addi	r3,r3,-1
    ab70:	002b883a 	mov	r21,zero
    ab74:	a004d63a 	srli	r2,r20,24
    ab78:	8822923a 	slli	r17,r17,8
    ab7c:	a028923a 	slli	r20,r20,8
    ab80:	8009883a 	mov	r4,r16
    ab84:	88acb03a 	or	r22,r17,r2
    ab88:	dd000015 	stw	r20,0(sp)
    ab8c:	b028d43a 	srli	r20,r22,16
    ab90:	d8c00215 	stw	r3,8(sp)
    ab94:	b4bfffcc 	andi	r18,r22,65535
    ab98:	a00b883a 	mov	r5,r20
    ab9c:	000c91c0 	call	c91c <__udivsi3>
    aba0:	100b883a 	mov	r5,r2
    aba4:	9009883a 	mov	r4,r18
    aba8:	1023883a 	mov	r17,r2
    abac:	000c9d80 	call	c9d8 <__mulsi3>
    abb0:	8009883a 	mov	r4,r16
    abb4:	a00b883a 	mov	r5,r20
    abb8:	1039883a 	mov	fp,r2
    abbc:	000c9800 	call	c980 <__umodsi3>
    abc0:	1004943a 	slli	r2,r2,16
    abc4:	b808d43a 	srli	r4,r23,16
    abc8:	d8c00217 	ldw	r3,8(sp)
    abcc:	2084b03a 	or	r2,r4,r2
    abd0:	1700062e 	bgeu	r2,fp,abec <__divdf3+0x3c0>
    abd4:	1585883a 	add	r2,r2,r22
    abd8:	893fffc4 	addi	r4,r17,-1
    abdc:	15811d36 	bltu	r2,r22,b054 <__divdf3+0x828>
    abe0:	17011c2e 	bgeu	r2,fp,b054 <__divdf3+0x828>
    abe4:	8c7fff84 	addi	r17,r17,-2
    abe8:	1585883a 	add	r2,r2,r22
    abec:	1739c83a 	sub	fp,r2,fp
    abf0:	a00b883a 	mov	r5,r20
    abf4:	e009883a 	mov	r4,fp
    abf8:	d8c00215 	stw	r3,8(sp)
    abfc:	000c91c0 	call	c91c <__udivsi3>
    ac00:	100b883a 	mov	r5,r2
    ac04:	9009883a 	mov	r4,r18
    ac08:	1021883a 	mov	r16,r2
    ac0c:	000c9d80 	call	c9d8 <__mulsi3>
    ac10:	a00b883a 	mov	r5,r20
    ac14:	e009883a 	mov	r4,fp
    ac18:	d8800415 	stw	r2,16(sp)
    ac1c:	000c9800 	call	c980 <__umodsi3>
    ac20:	1004943a 	slli	r2,r2,16
    ac24:	da000417 	ldw	r8,16(sp)
    ac28:	bdffffcc 	andi	r23,r23,65535
    ac2c:	b884b03a 	or	r2,r23,r2
    ac30:	d8c00217 	ldw	r3,8(sp)
    ac34:	1200062e 	bgeu	r2,r8,ac50 <__divdf3+0x424>
    ac38:	1585883a 	add	r2,r2,r22
    ac3c:	813fffc4 	addi	r4,r16,-1
    ac40:	15810236 	bltu	r2,r22,b04c <__divdf3+0x820>
    ac44:	1201012e 	bgeu	r2,r8,b04c <__divdf3+0x820>
    ac48:	843fff84 	addi	r16,r16,-2
    ac4c:	1585883a 	add	r2,r2,r22
    ac50:	8822943a 	slli	r17,r17,16
    ac54:	d9800017 	ldw	r6,0(sp)
    ac58:	1211c83a 	sub	r8,r2,r8
    ac5c:	8c22b03a 	or	r17,r17,r16
    ac60:	373fffcc 	andi	fp,r6,65535
    ac64:	8abfffcc 	andi	r10,r17,65535
    ac68:	8820d43a 	srli	r16,r17,16
    ac6c:	5009883a 	mov	r4,r10
    ac70:	e00b883a 	mov	r5,fp
    ac74:	302ed43a 	srli	r23,r6,16
    ac78:	d8c00215 	stw	r3,8(sp)
    ac7c:	da000415 	stw	r8,16(sp)
    ac80:	da800115 	stw	r10,4(sp)
    ac84:	000c9d80 	call	c9d8 <__mulsi3>
    ac88:	800b883a 	mov	r5,r16
    ac8c:	e009883a 	mov	r4,fp
    ac90:	d8800515 	stw	r2,20(sp)
    ac94:	000c9d80 	call	c9d8 <__mulsi3>
    ac98:	8009883a 	mov	r4,r16
    ac9c:	b80b883a 	mov	r5,r23
    aca0:	d8800315 	stw	r2,12(sp)
    aca4:	000c9d80 	call	c9d8 <__mulsi3>
    aca8:	da800117 	ldw	r10,4(sp)
    acac:	b80b883a 	mov	r5,r23
    acb0:	1021883a 	mov	r16,r2
    acb4:	5009883a 	mov	r4,r10
    acb8:	000c9d80 	call	c9d8 <__mulsi3>
    acbc:	d9c00517 	ldw	r7,20(sp)
    acc0:	da400317 	ldw	r9,12(sp)
    acc4:	d8c00217 	ldw	r3,8(sp)
    acc8:	3808d43a 	srli	r4,r7,16
    accc:	1245883a 	add	r2,r2,r9
    acd0:	da000417 	ldw	r8,16(sp)
    acd4:	2085883a 	add	r2,r4,r2
    acd8:	1240022e 	bgeu	r2,r9,ace4 <__divdf3+0x4b8>
    acdc:	01000074 	movhi	r4,1
    ace0:	8121883a 	add	r16,r16,r4
    ace4:	1008d43a 	srli	r4,r2,16
    ace8:	1004943a 	slli	r2,r2,16
    acec:	39ffffcc 	andi	r7,r7,65535
    acf0:	2409883a 	add	r4,r4,r16
    acf4:	11c5883a 	add	r2,r2,r7
    acf8:	4100bb36 	bltu	r8,r4,afe8 <__divdf3+0x7bc>
    acfc:	4100d726 	beq	r8,r4,b05c <__divdf3+0x830>
    ad00:	4109c83a 	sub	r4,r8,r4
    ad04:	a8a1c83a 	sub	r16,r21,r2
    ad08:	ac2b803a 	cmpltu	r21,r21,r16
    ad0c:	256bc83a 	sub	r21,r4,r21
    ad10:	b540d926 	beq	r22,r21,b078 <__divdf3+0x84c>
    ad14:	a00b883a 	mov	r5,r20
    ad18:	a809883a 	mov	r4,r21
    ad1c:	d8c00215 	stw	r3,8(sp)
    ad20:	000c91c0 	call	c91c <__udivsi3>
    ad24:	100b883a 	mov	r5,r2
    ad28:	9009883a 	mov	r4,r18
    ad2c:	d8800515 	stw	r2,20(sp)
    ad30:	000c9d80 	call	c9d8 <__mulsi3>
    ad34:	a809883a 	mov	r4,r21
    ad38:	a00b883a 	mov	r5,r20
    ad3c:	d8800415 	stw	r2,16(sp)
    ad40:	000c9800 	call	c980 <__umodsi3>
    ad44:	1004943a 	slli	r2,r2,16
    ad48:	8008d43a 	srli	r4,r16,16
    ad4c:	da000417 	ldw	r8,16(sp)
    ad50:	d8c00217 	ldw	r3,8(sp)
    ad54:	2084b03a 	or	r2,r4,r2
    ad58:	d9c00517 	ldw	r7,20(sp)
    ad5c:	1200062e 	bgeu	r2,r8,ad78 <__divdf3+0x54c>
    ad60:	1585883a 	add	r2,r2,r22
    ad64:	393fffc4 	addi	r4,r7,-1
    ad68:	1580c536 	bltu	r2,r22,b080 <__divdf3+0x854>
    ad6c:	1200c42e 	bgeu	r2,r8,b080 <__divdf3+0x854>
    ad70:	39ffff84 	addi	r7,r7,-2
    ad74:	1585883a 	add	r2,r2,r22
    ad78:	122bc83a 	sub	r21,r2,r8
    ad7c:	a00b883a 	mov	r5,r20
    ad80:	a809883a 	mov	r4,r21
    ad84:	d8c00215 	stw	r3,8(sp)
    ad88:	d9c00515 	stw	r7,20(sp)
    ad8c:	000c91c0 	call	c91c <__udivsi3>
    ad90:	9009883a 	mov	r4,r18
    ad94:	100b883a 	mov	r5,r2
    ad98:	d8800415 	stw	r2,16(sp)
    ad9c:	000c9d80 	call	c9d8 <__mulsi3>
    ada0:	a809883a 	mov	r4,r21
    ada4:	a00b883a 	mov	r5,r20
    ada8:	1025883a 	mov	r18,r2
    adac:	000c9800 	call	c980 <__umodsi3>
    adb0:	1004943a 	slli	r2,r2,16
    adb4:	813fffcc 	andi	r4,r16,65535
    adb8:	d8c00217 	ldw	r3,8(sp)
    adbc:	20a0b03a 	or	r16,r4,r2
    adc0:	d9c00517 	ldw	r7,20(sp)
    adc4:	da000417 	ldw	r8,16(sp)
    adc8:	8480062e 	bgeu	r16,r18,ade4 <__divdf3+0x5b8>
    adcc:	85a1883a 	add	r16,r16,r22
    add0:	40bfffc4 	addi	r2,r8,-1
    add4:	8580ac36 	bltu	r16,r22,b088 <__divdf3+0x85c>
    add8:	8480ab2e 	bgeu	r16,r18,b088 <__divdf3+0x85c>
    addc:	423fff84 	addi	r8,r8,-2
    ade0:	85a1883a 	add	r16,r16,r22
    ade4:	3804943a 	slli	r2,r7,16
    ade8:	84a1c83a 	sub	r16,r16,r18
    adec:	e009883a 	mov	r4,fp
    adf0:	1228b03a 	or	r20,r2,r8
    adf4:	a1ffffcc 	andi	r7,r20,65535
    adf8:	a024d43a 	srli	r18,r20,16
    adfc:	380b883a 	mov	r5,r7
    ae00:	d8c00215 	stw	r3,8(sp)
    ae04:	d9c00515 	stw	r7,20(sp)
    ae08:	000c9d80 	call	c9d8 <__mulsi3>
    ae0c:	900b883a 	mov	r5,r18
    ae10:	e009883a 	mov	r4,fp
    ae14:	102b883a 	mov	r21,r2
    ae18:	000c9d80 	call	c9d8 <__mulsi3>
    ae1c:	900b883a 	mov	r5,r18
    ae20:	b809883a 	mov	r4,r23
    ae24:	1039883a 	mov	fp,r2
    ae28:	000c9d80 	call	c9d8 <__mulsi3>
    ae2c:	d9c00517 	ldw	r7,20(sp)
    ae30:	b80b883a 	mov	r5,r23
    ae34:	1025883a 	mov	r18,r2
    ae38:	3809883a 	mov	r4,r7
    ae3c:	000c9d80 	call	c9d8 <__mulsi3>
    ae40:	a808d43a 	srli	r4,r21,16
    ae44:	1705883a 	add	r2,r2,fp
    ae48:	d8c00217 	ldw	r3,8(sp)
    ae4c:	2085883a 	add	r2,r4,r2
    ae50:	1700022e 	bgeu	r2,fp,ae5c <__divdf3+0x630>
    ae54:	01000074 	movhi	r4,1
    ae58:	9125883a 	add	r18,r18,r4
    ae5c:	1008d43a 	srli	r4,r2,16
    ae60:	1004943a 	slli	r2,r2,16
    ae64:	ad7fffcc 	andi	r21,r21,65535
    ae68:	2489883a 	add	r4,r4,r18
    ae6c:	1545883a 	add	r2,r2,r21
    ae70:	81003836 	bltu	r16,r4,af54 <__divdf3+0x728>
    ae74:	81003626 	beq	r16,r4,af50 <__divdf3+0x724>
    ae78:	a5000054 	ori	r20,r20,1
    ae7c:	1880ffc4 	addi	r2,r3,1023
    ae80:	00bf2e0e 	bge	zero,r2,ab3c <__divdf3+0x310>
    ae84:	a10001cc 	andi	r4,r20,7
    ae88:	20000726 	beq	r4,zero,aea8 <__divdf3+0x67c>
    ae8c:	a10003cc 	andi	r4,r20,15
    ae90:	01400104 	movi	r5,4
    ae94:	21400426 	beq	r4,r5,aea8 <__divdf3+0x67c>
    ae98:	a149883a 	add	r4,r20,r5
    ae9c:	2529803a 	cmpltu	r20,r4,r20
    aea0:	8d23883a 	add	r17,r17,r20
    aea4:	2029883a 	mov	r20,r4
    aea8:	8900402c 	andhi	r4,r17,256
    aeac:	20000426 	beq	r4,zero,aec0 <__divdf3+0x694>
    aeb0:	18810004 	addi	r2,r3,1024
    aeb4:	00ffc034 	movhi	r3,65280
    aeb8:	18ffffc4 	addi	r3,r3,-1
    aebc:	88e2703a 	and	r17,r17,r3
    aec0:	00c1ff84 	movi	r3,2046
    aec4:	18beb416 	blt	r3,r2,a998 <__divdf3+0x16c>
    aec8:	a028d0fa 	srli	r20,r20,3
    aecc:	882a977a 	slli	r21,r17,29
    aed0:	8820927a 	slli	r16,r17,9
    aed4:	1081ffcc 	andi	r2,r2,2047
    aed8:	ad2ab03a 	or	r21,r21,r20
    aedc:	8020d33a 	srli	r16,r16,12
    aee0:	9900004c 	andi	r4,r19,1
    aee4:	003eb006 	br	a9a8 <__divdf3+0x17c>
    aee8:	8080022c 	andhi	r2,r16,8
    aeec:	10001226 	beq	r2,zero,af38 <__divdf3+0x70c>
    aef0:	8880022c 	andhi	r2,r17,8
    aef4:	1000101e 	bne	r2,zero,af38 <__divdf3+0x70c>
    aef8:	00800434 	movhi	r2,16
    aefc:	8c000234 	orhi	r16,r17,8
    af00:	10bfffc4 	addi	r2,r2,-1
    af04:	b809883a 	mov	r4,r23
    af08:	80a0703a 	and	r16,r16,r2
    af0c:	a02b883a 	mov	r21,r20
    af10:	003f0806 	br	ab34 <__divdf3+0x308>
    af14:	008000c4 	movi	r2,3
    af18:	3880b126 	beq	r7,r2,b1e0 <__divdf3+0x9b4>
    af1c:	00800044 	movi	r2,1
    af20:	38805b1e 	bne	r7,r2,b090 <__divdf3+0x864>
    af24:	e009883a 	mov	r4,fp
    af28:	0005883a 	mov	r2,zero
    af2c:	0021883a 	mov	r16,zero
    af30:	002b883a 	mov	r21,zero
    af34:	003e9c06 	br	a9a8 <__divdf3+0x17c>
    af38:	00800434 	movhi	r2,16
    af3c:	84000234 	orhi	r16,r16,8
    af40:	10bfffc4 	addi	r2,r2,-1
    af44:	b009883a 	mov	r4,r22
    af48:	80a0703a 	and	r16,r16,r2
    af4c:	003ef906 	br	ab34 <__divdf3+0x308>
    af50:	103fca26 	beq	r2,zero,ae7c <__divdf3+0x650>
    af54:	b421883a 	add	r16,r22,r16
    af58:	a17fffc4 	addi	r5,r20,-1
    af5c:	8580422e 	bgeu	r16,r22,b068 <__divdf3+0x83c>
    af60:	2829883a 	mov	r20,r5
    af64:	813fc41e 	bne	r16,r4,ae78 <__divdf3+0x64c>
    af68:	d9800017 	ldw	r6,0(sp)
    af6c:	30bfc21e 	bne	r6,r2,ae78 <__divdf3+0x64c>
    af70:	003fc206 	br	ae7c <__divdf3+0x650>
    af74:	143ff604 	addi	r16,r2,-40
    af78:	8c20983a 	sll	r16,r17,r16
    af7c:	002b883a 	mov	r21,zero
    af80:	003eb406 	br	aa54 <__divdf3+0x228>
    af84:	d9800215 	stw	r6,8(sp)
    af88:	d9c00515 	stw	r7,20(sp)
    af8c:	da000415 	stw	r8,16(sp)
    af90:	000c7c00 	call	c7c0 <__clzsi2>
    af94:	10800804 	addi	r2,r2,32
    af98:	da000417 	ldw	r8,16(sp)
    af9c:	d9c00517 	ldw	r7,20(sp)
    afa0:	d9800217 	ldw	r6,8(sp)
    afa4:	003ea106 	br	aa2c <__divdf3+0x200>
    afa8:	147ff604 	addi	r17,r2,-40
    afac:	3462983a 	sll	r17,r6,r17
    afb0:	0029883a 	mov	r20,zero
    afb4:	003ec906 	br	aadc <__divdf3+0x2b0>
    afb8:	3009883a 	mov	r4,r6
    afbc:	d9400115 	stw	r5,4(sp)
    afc0:	d9800215 	stw	r6,8(sp)
    afc4:	da000415 	stw	r8,16(sp)
    afc8:	da400315 	stw	r9,12(sp)
    afcc:	000c7c00 	call	c7c0 <__clzsi2>
    afd0:	10800804 	addi	r2,r2,32
    afd4:	da400317 	ldw	r9,12(sp)
    afd8:	da000417 	ldw	r8,16(sp)
    afdc:	d9800217 	ldw	r6,8(sp)
    afe0:	d9400117 	ldw	r5,4(sp)
    afe4:	003eb306 	br	aab4 <__divdf3+0x288>
    afe8:	d9800017 	ldw	r6,0(sp)
    afec:	a9ab883a 	add	r21,r21,r6
    aff0:	a98b803a 	cmpltu	r5,r21,r6
    aff4:	2d8b883a 	add	r5,r5,r22
    aff8:	2a11883a 	add	r8,r5,r8
    affc:	897fffc4 	addi	r5,r17,-1
    b000:	b2000c2e 	bgeu	r22,r8,b034 <__divdf3+0x808>
    b004:	41003f36 	bltu	r8,r4,b104 <__divdf3+0x8d8>
    b008:	22006c26 	beq	r4,r8,b1bc <__divdf3+0x990>
    b00c:	4109c83a 	sub	r4,r8,r4
    b010:	2823883a 	mov	r17,r5
    b014:	003f3b06 	br	ad04 <__divdf3+0x4d8>
    b018:	ad3ed336 	bltu	r21,r20,ab68 <__divdf3+0x33c>
    b01c:	a804d07a 	srli	r2,r21,1
    b020:	802e97fa 	slli	r23,r16,31
    b024:	a82a97fa 	slli	r21,r21,31
    b028:	8020d07a 	srli	r16,r16,1
    b02c:	b8aeb03a 	or	r23,r23,r2
    b030:	003ed006 	br	ab74 <__divdf3+0x348>
    b034:	b23ff51e 	bne	r22,r8,b00c <__divdf3+0x7e0>
    b038:	d9800017 	ldw	r6,0(sp)
    b03c:	a9bff12e 	bgeu	r21,r6,b004 <__divdf3+0x7d8>
    b040:	b109c83a 	sub	r4,r22,r4
    b044:	2823883a 	mov	r17,r5
    b048:	003f2e06 	br	ad04 <__divdf3+0x4d8>
    b04c:	2021883a 	mov	r16,r4
    b050:	003eff06 	br	ac50 <__divdf3+0x424>
    b054:	2023883a 	mov	r17,r4
    b058:	003ee406 	br	abec <__divdf3+0x3c0>
    b05c:	a8bfe236 	bltu	r21,r2,afe8 <__divdf3+0x7bc>
    b060:	0009883a 	mov	r4,zero
    b064:	003f2706 	br	ad04 <__divdf3+0x4d8>
    b068:	81002d36 	bltu	r16,r4,b120 <__divdf3+0x8f4>
    b06c:	24005626 	beq	r4,r16,b1c8 <__divdf3+0x99c>
    b070:	2829883a 	mov	r20,r5
    b074:	003f8006 	br	ae78 <__divdf3+0x64c>
    b078:	053fffc4 	movi	r20,-1
    b07c:	003f7f06 	br	ae7c <__divdf3+0x650>
    b080:	200f883a 	mov	r7,r4
    b084:	003f3c06 	br	ad78 <__divdf3+0x54c>
    b088:	1011883a 	mov	r8,r2
    b08c:	003f5506 	br	ade4 <__divdf3+0x5b8>
    b090:	e027883a 	mov	r19,fp
    b094:	003f7906 	br	ae7c <__divdf3+0x650>
    b098:	010007c4 	movi	r4,31
    b09c:	20c02816 	blt	r4,r3,b140 <__divdf3+0x914>
    b0a0:	00800804 	movi	r2,32
    b0a4:	10c5c83a 	sub	r2,r2,r3
    b0a8:	888a983a 	sll	r5,r17,r2
    b0ac:	a0c8d83a 	srl	r4,r20,r3
    b0b0:	a084983a 	sll	r2,r20,r2
    b0b4:	88e2d83a 	srl	r17,r17,r3
    b0b8:	2906b03a 	or	r3,r5,r4
    b0bc:	1004c03a 	cmpne	r2,r2,zero
    b0c0:	1886b03a 	or	r3,r3,r2
    b0c4:	188001cc 	andi	r2,r3,7
    b0c8:	10000726 	beq	r2,zero,b0e8 <__divdf3+0x8bc>
    b0cc:	188003cc 	andi	r2,r3,15
    b0d0:	01000104 	movi	r4,4
    b0d4:	11000426 	beq	r2,r4,b0e8 <__divdf3+0x8bc>
    b0d8:	1805883a 	mov	r2,r3
    b0dc:	10c00104 	addi	r3,r2,4
    b0e0:	1885803a 	cmpltu	r2,r3,r2
    b0e4:	88a3883a 	add	r17,r17,r2
    b0e8:	8880202c 	andhi	r2,r17,128
    b0ec:	10002926 	beq	r2,zero,b194 <__divdf3+0x968>
    b0f0:	9900004c 	andi	r4,r19,1
    b0f4:	00800044 	movi	r2,1
    b0f8:	0021883a 	mov	r16,zero
    b0fc:	002b883a 	mov	r21,zero
    b100:	003e2906 	br	a9a8 <__divdf3+0x17c>
    b104:	d9800017 	ldw	r6,0(sp)
    b108:	8c7fff84 	addi	r17,r17,-2
    b10c:	a9ab883a 	add	r21,r21,r6
    b110:	a98b803a 	cmpltu	r5,r21,r6
    b114:	2d8b883a 	add	r5,r5,r22
    b118:	2a11883a 	add	r8,r5,r8
    b11c:	003ef806 	br	ad00 <__divdf3+0x4d4>
    b120:	d9800017 	ldw	r6,0(sp)
    b124:	318f883a 	add	r7,r6,r6
    b128:	398b803a 	cmpltu	r5,r7,r6
    b12c:	2d8d883a 	add	r6,r5,r22
    b130:	81a1883a 	add	r16,r16,r6
    b134:	a17fff84 	addi	r5,r20,-2
    b138:	d9c00015 	stw	r7,0(sp)
    b13c:	003f8806 	br	af60 <__divdf3+0x734>
    b140:	013ff844 	movi	r4,-31
    b144:	2085c83a 	sub	r2,r4,r2
    b148:	8888d83a 	srl	r4,r17,r2
    b14c:	00800804 	movi	r2,32
    b150:	18802126 	beq	r3,r2,b1d8 <__divdf3+0x9ac>
    b154:	04001004 	movi	r16,64
    b158:	80c7c83a 	sub	r3,r16,r3
    b15c:	88e0983a 	sll	r16,r17,r3
    b160:	8504b03a 	or	r2,r16,r20
    b164:	1004c03a 	cmpne	r2,r2,zero
    b168:	2084b03a 	or	r2,r4,r2
    b16c:	144001cc 	andi	r17,r2,7
    b170:	88000d1e 	bne	r17,zero,b1a8 <__divdf3+0x97c>
    b174:	0021883a 	mov	r16,zero
    b178:	102ad0fa 	srli	r21,r2,3
    b17c:	9900004c 	andi	r4,r19,1
    b180:	0005883a 	mov	r2,zero
    b184:	ac6ab03a 	or	r21,r21,r17
    b188:	003e0706 	br	a9a8 <__divdf3+0x17c>
    b18c:	1007883a 	mov	r3,r2
    b190:	0023883a 	mov	r17,zero
    b194:	8820927a 	slli	r16,r17,9
    b198:	1805883a 	mov	r2,r3
    b19c:	8822977a 	slli	r17,r17,29
    b1a0:	8020d33a 	srli	r16,r16,12
    b1a4:	003ff406 	br	b178 <__divdf3+0x94c>
    b1a8:	10c003cc 	andi	r3,r2,15
    b1ac:	01000104 	movi	r4,4
    b1b0:	193ff626 	beq	r3,r4,b18c <__divdf3+0x960>
    b1b4:	0023883a 	mov	r17,zero
    b1b8:	003fc806 	br	b0dc <__divdf3+0x8b0>
    b1bc:	a8bfd136 	bltu	r21,r2,b104 <__divdf3+0x8d8>
    b1c0:	2823883a 	mov	r17,r5
    b1c4:	003fa606 	br	b060 <__divdf3+0x834>
    b1c8:	d9800017 	ldw	r6,0(sp)
    b1cc:	30bfd436 	bltu	r6,r2,b120 <__divdf3+0x8f4>
    b1d0:	2829883a 	mov	r20,r5
    b1d4:	003f6406 	br	af68 <__divdf3+0x73c>
    b1d8:	0021883a 	mov	r16,zero
    b1dc:	003fe006 	br	b160 <__divdf3+0x934>
    b1e0:	00800434 	movhi	r2,16
    b1e4:	8c000234 	orhi	r16,r17,8
    b1e8:	10bfffc4 	addi	r2,r2,-1
    b1ec:	e009883a 	mov	r4,fp
    b1f0:	80a0703a 	and	r16,r16,r2
    b1f4:	a02b883a 	mov	r21,r20
    b1f8:	003e4e06 	br	ab34 <__divdf3+0x308>

0000b1fc <__eqdf2>:
    b1fc:	2804d53a 	srli	r2,r5,20
    b200:	3806d53a 	srli	r3,r7,20
    b204:	02000434 	movhi	r8,16
    b208:	423fffc4 	addi	r8,r8,-1
    b20c:	1081ffcc 	andi	r2,r2,2047
    b210:	0281ffc4 	movi	r10,2047
    b214:	2a12703a 	and	r9,r5,r8
    b218:	18c1ffcc 	andi	r3,r3,2047
    b21c:	3a10703a 	and	r8,r7,r8
    b220:	280ad7fa 	srli	r5,r5,31
    b224:	380ed7fa 	srli	r7,r7,31
    b228:	12801026 	beq	r2,r10,b26c <__eqdf2+0x70>
    b22c:	0281ffc4 	movi	r10,2047
    b230:	1a800a26 	beq	r3,r10,b25c <__eqdf2+0x60>
    b234:	10c00226 	beq	r2,r3,b240 <__eqdf2+0x44>
    b238:	00800044 	movi	r2,1
    b23c:	f800283a 	ret
    b240:	4a3ffd1e 	bne	r9,r8,b238 <__eqdf2+0x3c>
    b244:	21bffc1e 	bne	r4,r6,b238 <__eqdf2+0x3c>
    b248:	29c00c26 	beq	r5,r7,b27c <__eqdf2+0x80>
    b24c:	103ffa1e 	bne	r2,zero,b238 <__eqdf2+0x3c>
    b250:	2244b03a 	or	r2,r4,r9
    b254:	1004c03a 	cmpne	r2,r2,zero
    b258:	f800283a 	ret
    b25c:	3214b03a 	or	r10,r6,r8
    b260:	503ff426 	beq	r10,zero,b234 <__eqdf2+0x38>
    b264:	00800044 	movi	r2,1
    b268:	f800283a 	ret
    b26c:	2254b03a 	or	r10,r4,r9
    b270:	503fee26 	beq	r10,zero,b22c <__eqdf2+0x30>
    b274:	00800044 	movi	r2,1
    b278:	f800283a 	ret
    b27c:	0005883a 	mov	r2,zero
    b280:	f800283a 	ret

0000b284 <__gedf2>:
    b284:	2804d53a 	srli	r2,r5,20
    b288:	3806d53a 	srli	r3,r7,20
    b28c:	02000434 	movhi	r8,16
    b290:	423fffc4 	addi	r8,r8,-1
    b294:	1081ffcc 	andi	r2,r2,2047
    b298:	0241ffc4 	movi	r9,2047
    b29c:	2a14703a 	and	r10,r5,r8
    b2a0:	18c1ffcc 	andi	r3,r3,2047
    b2a4:	3a10703a 	and	r8,r7,r8
    b2a8:	280ad7fa 	srli	r5,r5,31
    b2ac:	380ed7fa 	srli	r7,r7,31
    b2b0:	12401d26 	beq	r2,r9,b328 <__gedf2+0xa4>
    b2b4:	0241ffc4 	movi	r9,2047
    b2b8:	1a401226 	beq	r3,r9,b304 <__gedf2+0x80>
    b2bc:	1000081e 	bne	r2,zero,b2e0 <__gedf2+0x5c>
    b2c0:	2296b03a 	or	r11,r4,r10
    b2c4:	5813003a 	cmpeq	r9,r11,zero
    b2c8:	1800091e 	bne	r3,zero,b2f0 <__gedf2+0x6c>
    b2cc:	3218b03a 	or	r12,r6,r8
    b2d0:	6000071e 	bne	r12,zero,b2f0 <__gedf2+0x6c>
    b2d4:	0005883a 	mov	r2,zero
    b2d8:	5800101e 	bne	r11,zero,b31c <__gedf2+0x98>
    b2dc:	f800283a 	ret
    b2e0:	18000c1e 	bne	r3,zero,b314 <__gedf2+0x90>
    b2e4:	3212b03a 	or	r9,r6,r8
    b2e8:	48000c26 	beq	r9,zero,b31c <__gedf2+0x98>
    b2ec:	0013883a 	mov	r9,zero
    b2f0:	39c03fcc 	andi	r7,r7,255
    b2f4:	48000826 	beq	r9,zero,b318 <__gedf2+0x94>
    b2f8:	38000926 	beq	r7,zero,b320 <__gedf2+0x9c>
    b2fc:	00800044 	movi	r2,1
    b300:	f800283a 	ret
    b304:	3212b03a 	or	r9,r6,r8
    b308:	483fec26 	beq	r9,zero,b2bc <__gedf2+0x38>
    b30c:	00bfff84 	movi	r2,-2
    b310:	f800283a 	ret
    b314:	39c03fcc 	andi	r7,r7,255
    b318:	29c00626 	beq	r5,r7,b334 <__gedf2+0xb0>
    b31c:	283ff726 	beq	r5,zero,b2fc <__gedf2+0x78>
    b320:	00bfffc4 	movi	r2,-1
    b324:	f800283a 	ret
    b328:	2292b03a 	or	r9,r4,r10
    b32c:	483fe126 	beq	r9,zero,b2b4 <__gedf2+0x30>
    b330:	003ff606 	br	b30c <__gedf2+0x88>
    b334:	18bff916 	blt	r3,r2,b31c <__gedf2+0x98>
    b338:	10c00316 	blt	r2,r3,b348 <__gedf2+0xc4>
    b33c:	42bff736 	bltu	r8,r10,b31c <__gedf2+0x98>
    b340:	52000326 	beq	r10,r8,b350 <__gedf2+0xcc>
    b344:	5200042e 	bgeu	r10,r8,b358 <__gedf2+0xd4>
    b348:	283fec1e 	bne	r5,zero,b2fc <__gedf2+0x78>
    b34c:	003ff406 	br	b320 <__gedf2+0x9c>
    b350:	313ff236 	bltu	r6,r4,b31c <__gedf2+0x98>
    b354:	21bffc36 	bltu	r4,r6,b348 <__gedf2+0xc4>
    b358:	0005883a 	mov	r2,zero
    b35c:	f800283a 	ret

0000b360 <__ledf2>:
    b360:	2804d53a 	srli	r2,r5,20
    b364:	3810d53a 	srli	r8,r7,20
    b368:	00c00434 	movhi	r3,16
    b36c:	18ffffc4 	addi	r3,r3,-1
    b370:	1081ffcc 	andi	r2,r2,2047
    b374:	0241ffc4 	movi	r9,2047
    b378:	28d4703a 	and	r10,r5,r3
    b37c:	4201ffcc 	andi	r8,r8,2047
    b380:	38c6703a 	and	r3,r7,r3
    b384:	280ad7fa 	srli	r5,r5,31
    b388:	380ed7fa 	srli	r7,r7,31
    b38c:	12401f26 	beq	r2,r9,b40c <__ledf2+0xac>
    b390:	0241ffc4 	movi	r9,2047
    b394:	42401426 	beq	r8,r9,b3e8 <__ledf2+0x88>
    b398:	1000091e 	bne	r2,zero,b3c0 <__ledf2+0x60>
    b39c:	2296b03a 	or	r11,r4,r10
    b3a0:	5813003a 	cmpeq	r9,r11,zero
    b3a4:	29403fcc 	andi	r5,r5,255
    b3a8:	40000a1e 	bne	r8,zero,b3d4 <__ledf2+0x74>
    b3ac:	30d8b03a 	or	r12,r6,r3
    b3b0:	6000081e 	bne	r12,zero,b3d4 <__ledf2+0x74>
    b3b4:	0005883a 	mov	r2,zero
    b3b8:	5800111e 	bne	r11,zero,b400 <__ledf2+0xa0>
    b3bc:	f800283a 	ret
    b3c0:	29403fcc 	andi	r5,r5,255
    b3c4:	40000c1e 	bne	r8,zero,b3f8 <__ledf2+0x98>
    b3c8:	30d2b03a 	or	r9,r6,r3
    b3cc:	48000c26 	beq	r9,zero,b400 <__ledf2+0xa0>
    b3d0:	0013883a 	mov	r9,zero
    b3d4:	39c03fcc 	andi	r7,r7,255
    b3d8:	48000826 	beq	r9,zero,b3fc <__ledf2+0x9c>
    b3dc:	38001126 	beq	r7,zero,b424 <__ledf2+0xc4>
    b3e0:	00800044 	movi	r2,1
    b3e4:	f800283a 	ret
    b3e8:	30d2b03a 	or	r9,r6,r3
    b3ec:	483fea26 	beq	r9,zero,b398 <__ledf2+0x38>
    b3f0:	00800084 	movi	r2,2
    b3f4:	f800283a 	ret
    b3f8:	39c03fcc 	andi	r7,r7,255
    b3fc:	39400726 	beq	r7,r5,b41c <__ledf2+0xbc>
    b400:	2800081e 	bne	r5,zero,b424 <__ledf2+0xc4>
    b404:	00800044 	movi	r2,1
    b408:	f800283a 	ret
    b40c:	2292b03a 	or	r9,r4,r10
    b410:	483fdf26 	beq	r9,zero,b390 <__ledf2+0x30>
    b414:	00800084 	movi	r2,2
    b418:	f800283a 	ret
    b41c:	4080030e 	bge	r8,r2,b42c <__ledf2+0xcc>
    b420:	383fef26 	beq	r7,zero,b3e0 <__ledf2+0x80>
    b424:	00bfffc4 	movi	r2,-1
    b428:	f800283a 	ret
    b42c:	123feb16 	blt	r2,r8,b3dc <__ledf2+0x7c>
    b430:	1abff336 	bltu	r3,r10,b400 <__ledf2+0xa0>
    b434:	50c00326 	beq	r10,r3,b444 <__ledf2+0xe4>
    b438:	50c0042e 	bgeu	r10,r3,b44c <__ledf2+0xec>
    b43c:	283fe81e 	bne	r5,zero,b3e0 <__ledf2+0x80>
    b440:	003ff806 	br	b424 <__ledf2+0xc4>
    b444:	313fee36 	bltu	r6,r4,b400 <__ledf2+0xa0>
    b448:	21bffc36 	bltu	r4,r6,b43c <__ledf2+0xdc>
    b44c:	0005883a 	mov	r2,zero
    b450:	f800283a 	ret

0000b454 <__muldf3>:
    b454:	deffee04 	addi	sp,sp,-72
    b458:	dd000c15 	stw	r20,48(sp)
    b45c:	2828d53a 	srli	r20,r5,20
    b460:	ddc00f15 	stw	r23,60(sp)
    b464:	282ed7fa 	srli	r23,r5,31
    b468:	dc000815 	stw	r16,32(sp)
    b46c:	04000434 	movhi	r16,16
    b470:	dcc00b15 	stw	r19,44(sp)
    b474:	843fffc4 	addi	r16,r16,-1
    b478:	dfc01115 	stw	ra,68(sp)
    b47c:	df001015 	stw	fp,64(sp)
    b480:	dd800e15 	stw	r22,56(sp)
    b484:	dd400d15 	stw	r21,52(sp)
    b488:	dc800a15 	stw	r18,40(sp)
    b48c:	dc400915 	stw	r17,36(sp)
    b490:	a501ffcc 	andi	r20,r20,2047
    b494:	2c20703a 	and	r16,r5,r16
    b498:	b827883a 	mov	r19,r23
    b49c:	ba403fcc 	andi	r9,r23,255
    b4a0:	a0006026 	beq	r20,zero,b624 <__muldf3+0x1d0>
    b4a4:	0081ffc4 	movi	r2,2047
    b4a8:	202d883a 	mov	r22,r4
    b4ac:	a0803626 	beq	r20,r2,b588 <__muldf3+0x134>
    b4b0:	84000434 	orhi	r16,r16,16
    b4b4:	200ad77a 	srli	r5,r4,29
    b4b8:	800490fa 	slli	r2,r16,3
    b4bc:	202c90fa 	slli	r22,r4,3
    b4c0:	a53f0044 	addi	r20,r20,-1023
    b4c4:	28a0b03a 	or	r16,r5,r2
    b4c8:	002b883a 	mov	r21,zero
    b4cc:	000b883a 	mov	r5,zero
    b4d0:	3804d53a 	srli	r2,r7,20
    b4d4:	3838d7fa 	srli	fp,r7,31
    b4d8:	04400434 	movhi	r17,16
    b4dc:	8c7fffc4 	addi	r17,r17,-1
    b4e0:	1081ffcc 	andi	r2,r2,2047
    b4e4:	3025883a 	mov	r18,r6
    b4e8:	3c62703a 	and	r17,r7,r17
    b4ec:	e2803fcc 	andi	r10,fp,255
    b4f0:	10006d26 	beq	r2,zero,b6a8 <__muldf3+0x254>
    b4f4:	00c1ffc4 	movi	r3,2047
    b4f8:	10c06526 	beq	r2,r3,b690 <__muldf3+0x23c>
    b4fc:	8c400434 	orhi	r17,r17,16
    b500:	300ed77a 	srli	r7,r6,29
    b504:	880690fa 	slli	r3,r17,3
    b508:	302490fa 	slli	r18,r6,3
    b50c:	10bf0044 	addi	r2,r2,-1023
    b510:	38e2b03a 	or	r17,r7,r3
    b514:	000f883a 	mov	r7,zero
    b518:	a087883a 	add	r3,r20,r2
    b51c:	010003c4 	movi	r4,15
    b520:	3d44b03a 	or	r2,r7,r21
    b524:	e5ccf03a 	xor	r6,fp,r23
    b528:	1a000044 	addi	r8,r3,1
    b52c:	20809b36 	bltu	r4,r2,b79c <__muldf3+0x348>
    b530:	100490ba 	slli	r2,r2,2
    b534:	01000074 	movhi	r4,1
    b538:	212d5204 	addi	r4,r4,-19128
    b53c:	1105883a 	add	r2,r2,r4
    b540:	10800017 	ldw	r2,0(r2)
    b544:	1000683a 	jmp	r2
    b548:	0000b79c 	xori	zero,zero,734
    b54c:	0000b5a8 	cmpgeui	zero,zero,726
    b550:	0000b5a8 	cmpgeui	zero,zero,726
    b554:	0000b5a4 	muli	zero,zero,726
    b558:	0000b778 	rdprs	zero,zero,733
    b55c:	0000b778 	rdprs	zero,zero,733
    b560:	0000b760 	cmpeqi	zero,zero,733
    b564:	0000b5a4 	muli	zero,zero,726
    b568:	0000b778 	rdprs	zero,zero,733
    b56c:	0000b760 	cmpeqi	zero,zero,733
    b570:	0000b778 	rdprs	zero,zero,733
    b574:	0000b5a4 	muli	zero,zero,726
    b578:	0000b788 	cmpgei	zero,zero,734
    b57c:	0000b788 	cmpgei	zero,zero,734
    b580:	0000b788 	cmpgei	zero,zero,734
    b584:	0000bae8 	cmpgeui	zero,zero,747
    b588:	2404b03a 	or	r2,r4,r16
    b58c:	1000711e 	bne	r2,zero,b754 <__muldf3+0x300>
    b590:	05400204 	movi	r21,8
    b594:	0021883a 	mov	r16,zero
    b598:	002d883a 	mov	r22,zero
    b59c:	01400084 	movi	r5,2
    b5a0:	003fcb06 	br	b4d0 <__muldf3+0x7c>
    b5a4:	500d883a 	mov	r6,r10
    b5a8:	00800084 	movi	r2,2
    b5ac:	38805926 	beq	r7,r2,b714 <__muldf3+0x2c0>
    b5b0:	008000c4 	movi	r2,3
    b5b4:	3881bb26 	beq	r7,r2,bca4 <__muldf3+0x850>
    b5b8:	00800044 	movi	r2,1
    b5bc:	3881961e 	bne	r7,r2,bc18 <__muldf3+0x7c4>
    b5c0:	3027883a 	mov	r19,r6
    b5c4:	0005883a 	mov	r2,zero
    b5c8:	0021883a 	mov	r16,zero
    b5cc:	002d883a 	mov	r22,zero
    b5d0:	1004953a 	slli	r2,r2,20
    b5d4:	98c03fcc 	andi	r3,r19,255
    b5d8:	04400434 	movhi	r17,16
    b5dc:	8c7fffc4 	addi	r17,r17,-1
    b5e0:	180697fa 	slli	r3,r3,31
    b5e4:	8460703a 	and	r16,r16,r17
    b5e8:	80a0b03a 	or	r16,r16,r2
    b5ec:	80c6b03a 	or	r3,r16,r3
    b5f0:	b005883a 	mov	r2,r22
    b5f4:	dfc01117 	ldw	ra,68(sp)
    b5f8:	df001017 	ldw	fp,64(sp)
    b5fc:	ddc00f17 	ldw	r23,60(sp)
    b600:	dd800e17 	ldw	r22,56(sp)
    b604:	dd400d17 	ldw	r21,52(sp)
    b608:	dd000c17 	ldw	r20,48(sp)
    b60c:	dcc00b17 	ldw	r19,44(sp)
    b610:	dc800a17 	ldw	r18,40(sp)
    b614:	dc400917 	ldw	r17,36(sp)
    b618:	dc000817 	ldw	r16,32(sp)
    b61c:	dec01204 	addi	sp,sp,72
    b620:	f800283a 	ret
    b624:	2404b03a 	or	r2,r4,r16
    b628:	202b883a 	mov	r21,r4
    b62c:	10004426 	beq	r2,zero,b740 <__muldf3+0x2ec>
    b630:	80015126 	beq	r16,zero,bb78 <__muldf3+0x724>
    b634:	8009883a 	mov	r4,r16
    b638:	d9800715 	stw	r6,28(sp)
    b63c:	d9c00215 	stw	r7,8(sp)
    b640:	da400415 	stw	r9,16(sp)
    b644:	000c7c00 	call	c7c0 <__clzsi2>
    b648:	d9800717 	ldw	r6,28(sp)
    b64c:	d9c00217 	ldw	r7,8(sp)
    b650:	da400417 	ldw	r9,16(sp)
    b654:	113ffd44 	addi	r4,r2,-11
    b658:	00c00704 	movi	r3,28
    b65c:	19014216 	blt	r3,r4,bb68 <__muldf3+0x714>
    b660:	00c00744 	movi	r3,29
    b664:	15bffe04 	addi	r22,r2,-8
    b668:	1907c83a 	sub	r3,r3,r4
    b66c:	85a0983a 	sll	r16,r16,r22
    b670:	a8c6d83a 	srl	r3,r21,r3
    b674:	adac983a 	sll	r22,r21,r22
    b678:	1c20b03a 	or	r16,r3,r16
    b67c:	1080fcc4 	addi	r2,r2,1011
    b680:	00a9c83a 	sub	r20,zero,r2
    b684:	002b883a 	mov	r21,zero
    b688:	000b883a 	mov	r5,zero
    b68c:	003f9006 	br	b4d0 <__muldf3+0x7c>
    b690:	3446b03a 	or	r3,r6,r17
    b694:	1800281e 	bne	r3,zero,b738 <__muldf3+0x2e4>
    b698:	0023883a 	mov	r17,zero
    b69c:	0025883a 	mov	r18,zero
    b6a0:	01c00084 	movi	r7,2
    b6a4:	003f9c06 	br	b518 <__muldf3+0xc4>
    b6a8:	3446b03a 	or	r3,r6,r17
    b6ac:	18001e26 	beq	r3,zero,b728 <__muldf3+0x2d4>
    b6b0:	88012126 	beq	r17,zero,bb38 <__muldf3+0x6e4>
    b6b4:	8809883a 	mov	r4,r17
    b6b8:	d9400215 	stw	r5,8(sp)
    b6bc:	d9800715 	stw	r6,28(sp)
    b6c0:	da400415 	stw	r9,16(sp)
    b6c4:	da800315 	stw	r10,12(sp)
    b6c8:	000c7c00 	call	c7c0 <__clzsi2>
    b6cc:	d9400217 	ldw	r5,8(sp)
    b6d0:	d9800717 	ldw	r6,28(sp)
    b6d4:	da400417 	ldw	r9,16(sp)
    b6d8:	da800317 	ldw	r10,12(sp)
    b6dc:	113ffd44 	addi	r4,r2,-11
    b6e0:	00c00704 	movi	r3,28
    b6e4:	19011016 	blt	r3,r4,bb28 <__muldf3+0x6d4>
    b6e8:	00c00744 	movi	r3,29
    b6ec:	14bffe04 	addi	r18,r2,-8
    b6f0:	1907c83a 	sub	r3,r3,r4
    b6f4:	8ca2983a 	sll	r17,r17,r18
    b6f8:	30c6d83a 	srl	r3,r6,r3
    b6fc:	34a4983a 	sll	r18,r6,r18
    b700:	1c62b03a 	or	r17,r3,r17
    b704:	1080fcc4 	addi	r2,r2,1011
    b708:	0085c83a 	sub	r2,zero,r2
    b70c:	000f883a 	mov	r7,zero
    b710:	003f8106 	br	b518 <__muldf3+0xc4>
    b714:	3027883a 	mov	r19,r6
    b718:	0081ffc4 	movi	r2,2047
    b71c:	0021883a 	mov	r16,zero
    b720:	002d883a 	mov	r22,zero
    b724:	003faa06 	br	b5d0 <__muldf3+0x17c>
    b728:	0023883a 	mov	r17,zero
    b72c:	0025883a 	mov	r18,zero
    b730:	01c00044 	movi	r7,1
    b734:	003f7806 	br	b518 <__muldf3+0xc4>
    b738:	01c000c4 	movi	r7,3
    b73c:	003f7606 	br	b518 <__muldf3+0xc4>
    b740:	05400104 	movi	r21,4
    b744:	0021883a 	mov	r16,zero
    b748:	002d883a 	mov	r22,zero
    b74c:	01400044 	movi	r5,1
    b750:	003f5f06 	br	b4d0 <__muldf3+0x7c>
    b754:	05400304 	movi	r21,12
    b758:	014000c4 	movi	r5,3
    b75c:	003f5c06 	br	b4d0 <__muldf3+0x7c>
    b760:	04000434 	movhi	r16,16
    b764:	0027883a 	mov	r19,zero
    b768:	843fffc4 	addi	r16,r16,-1
    b76c:	05bfffc4 	movi	r22,-1
    b770:	0081ffc4 	movi	r2,2047
    b774:	003f9606 	br	b5d0 <__muldf3+0x17c>
    b778:	8023883a 	mov	r17,r16
    b77c:	b025883a 	mov	r18,r22
    b780:	280f883a 	mov	r7,r5
    b784:	003f8806 	br	b5a8 <__muldf3+0x154>
    b788:	8023883a 	mov	r17,r16
    b78c:	b025883a 	mov	r18,r22
    b790:	480d883a 	mov	r6,r9
    b794:	280f883a 	mov	r7,r5
    b798:	003f8306 	br	b5a8 <__muldf3+0x154>
    b79c:	b026d43a 	srli	r19,r22,16
    b7a0:	902ed43a 	srli	r23,r18,16
    b7a4:	b5bfffcc 	andi	r22,r22,65535
    b7a8:	94bfffcc 	andi	r18,r18,65535
    b7ac:	b00b883a 	mov	r5,r22
    b7b0:	9009883a 	mov	r4,r18
    b7b4:	d8c00515 	stw	r3,20(sp)
    b7b8:	d9800715 	stw	r6,28(sp)
    b7bc:	da000615 	stw	r8,24(sp)
    b7c0:	000c9d80 	call	c9d8 <__mulsi3>
    b7c4:	980b883a 	mov	r5,r19
    b7c8:	9009883a 	mov	r4,r18
    b7cc:	1029883a 	mov	r20,r2
    b7d0:	000c9d80 	call	c9d8 <__mulsi3>
    b7d4:	b80b883a 	mov	r5,r23
    b7d8:	9809883a 	mov	r4,r19
    b7dc:	102b883a 	mov	r21,r2
    b7e0:	000c9d80 	call	c9d8 <__mulsi3>
    b7e4:	b809883a 	mov	r4,r23
    b7e8:	b00b883a 	mov	r5,r22
    b7ec:	1039883a 	mov	fp,r2
    b7f0:	000c9d80 	call	c9d8 <__mulsi3>
    b7f4:	a008d43a 	srli	r4,r20,16
    b7f8:	1545883a 	add	r2,r2,r21
    b7fc:	d8c00517 	ldw	r3,20(sp)
    b800:	2085883a 	add	r2,r4,r2
    b804:	d9800717 	ldw	r6,28(sp)
    b808:	da000617 	ldw	r8,24(sp)
    b80c:	1540022e 	bgeu	r2,r21,b818 <__muldf3+0x3c4>
    b810:	01000074 	movhi	r4,1
    b814:	e139883a 	add	fp,fp,r4
    b818:	100e943a 	slli	r7,r2,16
    b81c:	1004d43a 	srli	r2,r2,16
    b820:	882ad43a 	srli	r21,r17,16
    b824:	a53fffcc 	andi	r20,r20,65535
    b828:	8c7fffcc 	andi	r17,r17,65535
    b82c:	3d29883a 	add	r20,r7,r20
    b830:	b00b883a 	mov	r5,r22
    b834:	8809883a 	mov	r4,r17
    b838:	d8c00515 	stw	r3,20(sp)
    b83c:	d9800715 	stw	r6,28(sp)
    b840:	da000615 	stw	r8,24(sp)
    b844:	dd000115 	stw	r20,4(sp)
    b848:	d8800015 	stw	r2,0(sp)
    b84c:	000c9d80 	call	c9d8 <__mulsi3>
    b850:	980b883a 	mov	r5,r19
    b854:	8809883a 	mov	r4,r17
    b858:	d8800215 	stw	r2,8(sp)
    b85c:	000c9d80 	call	c9d8 <__mulsi3>
    b860:	9809883a 	mov	r4,r19
    b864:	a80b883a 	mov	r5,r21
    b868:	1029883a 	mov	r20,r2
    b86c:	000c9d80 	call	c9d8 <__mulsi3>
    b870:	b00b883a 	mov	r5,r22
    b874:	a809883a 	mov	r4,r21
    b878:	d8800415 	stw	r2,16(sp)
    b87c:	000c9d80 	call	c9d8 <__mulsi3>
    b880:	d9c00217 	ldw	r7,8(sp)
    b884:	1505883a 	add	r2,r2,r20
    b888:	d8c00517 	ldw	r3,20(sp)
    b88c:	3826d43a 	srli	r19,r7,16
    b890:	d9800717 	ldw	r6,28(sp)
    b894:	da000617 	ldw	r8,24(sp)
    b898:	9885883a 	add	r2,r19,r2
    b89c:	da400417 	ldw	r9,16(sp)
    b8a0:	1500022e 	bgeu	r2,r20,b8ac <__muldf3+0x458>
    b8a4:	01000074 	movhi	r4,1
    b8a8:	4913883a 	add	r9,r9,r4
    b8ac:	1028d43a 	srli	r20,r2,16
    b8b0:	1004943a 	slli	r2,r2,16
    b8b4:	802cd43a 	srli	r22,r16,16
    b8b8:	843fffcc 	andi	r16,r16,65535
    b8bc:	3cffffcc 	andi	r19,r7,65535
    b8c0:	9009883a 	mov	r4,r18
    b8c4:	800b883a 	mov	r5,r16
    b8c8:	a269883a 	add	r20,r20,r9
    b8cc:	d8c00515 	stw	r3,20(sp)
    b8d0:	d9800715 	stw	r6,28(sp)
    b8d4:	da000615 	stw	r8,24(sp)
    b8d8:	14e7883a 	add	r19,r2,r19
    b8dc:	000c9d80 	call	c9d8 <__mulsi3>
    b8e0:	9009883a 	mov	r4,r18
    b8e4:	b00b883a 	mov	r5,r22
    b8e8:	d8800315 	stw	r2,12(sp)
    b8ec:	000c9d80 	call	c9d8 <__mulsi3>
    b8f0:	b809883a 	mov	r4,r23
    b8f4:	b00b883a 	mov	r5,r22
    b8f8:	d8800215 	stw	r2,8(sp)
    b8fc:	000c9d80 	call	c9d8 <__mulsi3>
    b900:	b80b883a 	mov	r5,r23
    b904:	8009883a 	mov	r4,r16
    b908:	d8800415 	stw	r2,16(sp)
    b90c:	000c9d80 	call	c9d8 <__mulsi3>
    b910:	da800317 	ldw	r10,12(sp)
    b914:	d9c00217 	ldw	r7,8(sp)
    b918:	d9000017 	ldw	r4,0(sp)
    b91c:	502ed43a 	srli	r23,r10,16
    b920:	11c5883a 	add	r2,r2,r7
    b924:	24e5883a 	add	r18,r4,r19
    b928:	b885883a 	add	r2,r23,r2
    b92c:	d8c00517 	ldw	r3,20(sp)
    b930:	d9800717 	ldw	r6,28(sp)
    b934:	da000617 	ldw	r8,24(sp)
    b938:	da400417 	ldw	r9,16(sp)
    b93c:	11c0022e 	bgeu	r2,r7,b948 <__muldf3+0x4f4>
    b940:	01000074 	movhi	r4,1
    b944:	4913883a 	add	r9,r9,r4
    b948:	100ed43a 	srli	r7,r2,16
    b94c:	1004943a 	slli	r2,r2,16
    b950:	55ffffcc 	andi	r23,r10,65535
    b954:	3a53883a 	add	r9,r7,r9
    b958:	8809883a 	mov	r4,r17
    b95c:	800b883a 	mov	r5,r16
    b960:	d8c00515 	stw	r3,20(sp)
    b964:	d9800715 	stw	r6,28(sp)
    b968:	da000615 	stw	r8,24(sp)
    b96c:	da400415 	stw	r9,16(sp)
    b970:	15ef883a 	add	r23,r2,r23
    b974:	000c9d80 	call	c9d8 <__mulsi3>
    b978:	8809883a 	mov	r4,r17
    b97c:	b00b883a 	mov	r5,r22
    b980:	d8800215 	stw	r2,8(sp)
    b984:	000c9d80 	call	c9d8 <__mulsi3>
    b988:	b00b883a 	mov	r5,r22
    b98c:	a809883a 	mov	r4,r21
    b990:	d8800315 	stw	r2,12(sp)
    b994:	000c9d80 	call	c9d8 <__mulsi3>
    b998:	8009883a 	mov	r4,r16
    b99c:	a80b883a 	mov	r5,r21
    b9a0:	1023883a 	mov	r17,r2
    b9a4:	000c9d80 	call	c9d8 <__mulsi3>
    b9a8:	d9c00217 	ldw	r7,8(sp)
    b9ac:	da800317 	ldw	r10,12(sp)
    b9b0:	d8c00517 	ldw	r3,20(sp)
    b9b4:	3808d43a 	srli	r4,r7,16
    b9b8:	1285883a 	add	r2,r2,r10
    b9bc:	d9800717 	ldw	r6,28(sp)
    b9c0:	2085883a 	add	r2,r4,r2
    b9c4:	da000617 	ldw	r8,24(sp)
    b9c8:	da400417 	ldw	r9,16(sp)
    b9cc:	1280022e 	bgeu	r2,r10,b9d8 <__muldf3+0x584>
    b9d0:	01000074 	movhi	r4,1
    b9d4:	8923883a 	add	r17,r17,r4
    b9d8:	1008943a 	slli	r4,r2,16
    b9dc:	39ffffcc 	andi	r7,r7,65535
    b9e0:	e4b9883a 	add	fp,fp,r18
    b9e4:	21cf883a 	add	r7,r4,r7
    b9e8:	e4e7803a 	cmpltu	r19,fp,r19
    b9ec:	3d0f883a 	add	r7,r7,r20
    b9f0:	bf39883a 	add	fp,r23,fp
    b9f4:	99c9883a 	add	r4,r19,r7
    b9f8:	e5ef803a 	cmpltu	r23,fp,r23
    b9fc:	490b883a 	add	r5,r9,r4
    ba00:	1004d43a 	srli	r2,r2,16
    ba04:	b965883a 	add	r18,r23,r5
    ba08:	24c9803a 	cmpltu	r4,r4,r19
    ba0c:	3d29803a 	cmpltu	r20,r7,r20
    ba10:	a128b03a 	or	r20,r20,r4
    ba14:	95ef803a 	cmpltu	r23,r18,r23
    ba18:	2a53803a 	cmpltu	r9,r5,r9
    ba1c:	a0a9883a 	add	r20,r20,r2
    ba20:	4deeb03a 	or	r23,r9,r23
    ba24:	a5ef883a 	add	r23,r20,r23
    ba28:	bc63883a 	add	r17,r23,r17
    ba2c:	e004927a 	slli	r2,fp,9
    ba30:	d9000117 	ldw	r4,4(sp)
    ba34:	882e927a 	slli	r23,r17,9
    ba38:	9022d5fa 	srli	r17,r18,23
    ba3c:	e038d5fa 	srli	fp,fp,23
    ba40:	1104b03a 	or	r2,r2,r4
    ba44:	9024927a 	slli	r18,r18,9
    ba48:	1004c03a 	cmpne	r2,r2,zero
    ba4c:	bc62b03a 	or	r17,r23,r17
    ba50:	1738b03a 	or	fp,r2,fp
    ba54:	8880402c 	andhi	r2,r17,256
    ba58:	e4a4b03a 	or	r18,fp,r18
    ba5c:	10000726 	beq	r2,zero,ba7c <__muldf3+0x628>
    ba60:	9006d07a 	srli	r3,r18,1
    ba64:	880497fa 	slli	r2,r17,31
    ba68:	9480004c 	andi	r18,r18,1
    ba6c:	8822d07a 	srli	r17,r17,1
    ba70:	1ca4b03a 	or	r18,r3,r18
    ba74:	14a4b03a 	or	r18,r2,r18
    ba78:	4007883a 	mov	r3,r8
    ba7c:	1880ffc4 	addi	r2,r3,1023
    ba80:	0080460e 	bge	zero,r2,bb9c <__muldf3+0x748>
    ba84:	910001cc 	andi	r4,r18,7
    ba88:	20000726 	beq	r4,zero,baa8 <__muldf3+0x654>
    ba8c:	910003cc 	andi	r4,r18,15
    ba90:	01400104 	movi	r5,4
    ba94:	21400426 	beq	r4,r5,baa8 <__muldf3+0x654>
    ba98:	9149883a 	add	r4,r18,r5
    ba9c:	24a5803a 	cmpltu	r18,r4,r18
    baa0:	8ca3883a 	add	r17,r17,r18
    baa4:	2025883a 	mov	r18,r4
    baa8:	8900402c 	andhi	r4,r17,256
    baac:	20000426 	beq	r4,zero,bac0 <__muldf3+0x66c>
    bab0:	18810004 	addi	r2,r3,1024
    bab4:	00ffc034 	movhi	r3,65280
    bab8:	18ffffc4 	addi	r3,r3,-1
    babc:	88e2703a 	and	r17,r17,r3
    bac0:	00c1ff84 	movi	r3,2046
    bac4:	18bf1316 	blt	r3,r2,b714 <__muldf3+0x2c0>
    bac8:	882c977a 	slli	r22,r17,29
    bacc:	9024d0fa 	srli	r18,r18,3
    bad0:	8822927a 	slli	r17,r17,9
    bad4:	1081ffcc 	andi	r2,r2,2047
    bad8:	b4acb03a 	or	r22,r22,r18
    badc:	8820d33a 	srli	r16,r17,12
    bae0:	3027883a 	mov	r19,r6
    bae4:	003eba06 	br	b5d0 <__muldf3+0x17c>
    bae8:	8080022c 	andhi	r2,r16,8
    baec:	10000926 	beq	r2,zero,bb14 <__muldf3+0x6c0>
    baf0:	8880022c 	andhi	r2,r17,8
    baf4:	1000071e 	bne	r2,zero,bb14 <__muldf3+0x6c0>
    baf8:	00800434 	movhi	r2,16
    bafc:	8c000234 	orhi	r16,r17,8
    bb00:	10bfffc4 	addi	r2,r2,-1
    bb04:	e027883a 	mov	r19,fp
    bb08:	80a0703a 	and	r16,r16,r2
    bb0c:	902d883a 	mov	r22,r18
    bb10:	003f1706 	br	b770 <__muldf3+0x31c>
    bb14:	00800434 	movhi	r2,16
    bb18:	84000234 	orhi	r16,r16,8
    bb1c:	10bfffc4 	addi	r2,r2,-1
    bb20:	80a0703a 	and	r16,r16,r2
    bb24:	003f1206 	br	b770 <__muldf3+0x31c>
    bb28:	147ff604 	addi	r17,r2,-40
    bb2c:	3462983a 	sll	r17,r6,r17
    bb30:	0025883a 	mov	r18,zero
    bb34:	003ef306 	br	b704 <__muldf3+0x2b0>
    bb38:	3009883a 	mov	r4,r6
    bb3c:	d9400215 	stw	r5,8(sp)
    bb40:	d9800715 	stw	r6,28(sp)
    bb44:	da400415 	stw	r9,16(sp)
    bb48:	da800315 	stw	r10,12(sp)
    bb4c:	000c7c00 	call	c7c0 <__clzsi2>
    bb50:	10800804 	addi	r2,r2,32
    bb54:	da800317 	ldw	r10,12(sp)
    bb58:	da400417 	ldw	r9,16(sp)
    bb5c:	d9800717 	ldw	r6,28(sp)
    bb60:	d9400217 	ldw	r5,8(sp)
    bb64:	003edd06 	br	b6dc <__muldf3+0x288>
    bb68:	143ff604 	addi	r16,r2,-40
    bb6c:	ac20983a 	sll	r16,r21,r16
    bb70:	002d883a 	mov	r22,zero
    bb74:	003ec106 	br	b67c <__muldf3+0x228>
    bb78:	d9800715 	stw	r6,28(sp)
    bb7c:	d9c00215 	stw	r7,8(sp)
    bb80:	da400415 	stw	r9,16(sp)
    bb84:	000c7c00 	call	c7c0 <__clzsi2>
    bb88:	10800804 	addi	r2,r2,32
    bb8c:	da400417 	ldw	r9,16(sp)
    bb90:	d9c00217 	ldw	r7,8(sp)
    bb94:	d9800717 	ldw	r6,28(sp)
    bb98:	003eae06 	br	b654 <__muldf3+0x200>
    bb9c:	00c00044 	movi	r3,1
    bba0:	1887c83a 	sub	r3,r3,r2
    bba4:	01000e04 	movi	r4,56
    bba8:	20fe8516 	blt	r4,r3,b5c0 <__muldf3+0x16c>
    bbac:	010007c4 	movi	r4,31
    bbb0:	20c01b16 	blt	r4,r3,bc20 <__muldf3+0x7cc>
    bbb4:	00800804 	movi	r2,32
    bbb8:	10c5c83a 	sub	r2,r2,r3
    bbbc:	888a983a 	sll	r5,r17,r2
    bbc0:	90c8d83a 	srl	r4,r18,r3
    bbc4:	9084983a 	sll	r2,r18,r2
    bbc8:	88e2d83a 	srl	r17,r17,r3
    bbcc:	2906b03a 	or	r3,r5,r4
    bbd0:	1004c03a 	cmpne	r2,r2,zero
    bbd4:	1886b03a 	or	r3,r3,r2
    bbd8:	188001cc 	andi	r2,r3,7
    bbdc:	10000726 	beq	r2,zero,bbfc <__muldf3+0x7a8>
    bbe0:	188003cc 	andi	r2,r3,15
    bbe4:	01000104 	movi	r4,4
    bbe8:	11000426 	beq	r2,r4,bbfc <__muldf3+0x7a8>
    bbec:	1805883a 	mov	r2,r3
    bbf0:	10c00104 	addi	r3,r2,4
    bbf4:	1885803a 	cmpltu	r2,r3,r2
    bbf8:	88a3883a 	add	r17,r17,r2
    bbfc:	8880202c 	andhi	r2,r17,128
    bc00:	10001c26 	beq	r2,zero,bc74 <__muldf3+0x820>
    bc04:	3027883a 	mov	r19,r6
    bc08:	00800044 	movi	r2,1
    bc0c:	0021883a 	mov	r16,zero
    bc10:	002d883a 	mov	r22,zero
    bc14:	003e6e06 	br	b5d0 <__muldf3+0x17c>
    bc18:	4007883a 	mov	r3,r8
    bc1c:	003f9706 	br	ba7c <__muldf3+0x628>
    bc20:	017ff844 	movi	r5,-31
    bc24:	2885c83a 	sub	r2,r5,r2
    bc28:	888ad83a 	srl	r5,r17,r2
    bc2c:	00800804 	movi	r2,32
    bc30:	18801a26 	beq	r3,r2,bc9c <__muldf3+0x848>
    bc34:	01001004 	movi	r4,64
    bc38:	20c7c83a 	sub	r3,r4,r3
    bc3c:	88e2983a 	sll	r17,r17,r3
    bc40:	8ca4b03a 	or	r18,r17,r18
    bc44:	9004c03a 	cmpne	r2,r18,zero
    bc48:	2884b03a 	or	r2,r5,r2
    bc4c:	144001cc 	andi	r17,r2,7
    bc50:	88000d1e 	bne	r17,zero,bc88 <__muldf3+0x834>
    bc54:	0021883a 	mov	r16,zero
    bc58:	102cd0fa 	srli	r22,r2,3
    bc5c:	3027883a 	mov	r19,r6
    bc60:	0005883a 	mov	r2,zero
    bc64:	b46cb03a 	or	r22,r22,r17
    bc68:	003e5906 	br	b5d0 <__muldf3+0x17c>
    bc6c:	1007883a 	mov	r3,r2
    bc70:	0023883a 	mov	r17,zero
    bc74:	8820927a 	slli	r16,r17,9
    bc78:	1805883a 	mov	r2,r3
    bc7c:	8822977a 	slli	r17,r17,29
    bc80:	8020d33a 	srli	r16,r16,12
    bc84:	003ff406 	br	bc58 <__muldf3+0x804>
    bc88:	10c003cc 	andi	r3,r2,15
    bc8c:	01000104 	movi	r4,4
    bc90:	193ff626 	beq	r3,r4,bc6c <__muldf3+0x818>
    bc94:	0023883a 	mov	r17,zero
    bc98:	003fd506 	br	bbf0 <__muldf3+0x79c>
    bc9c:	0023883a 	mov	r17,zero
    bca0:	003fe706 	br	bc40 <__muldf3+0x7ec>
    bca4:	00800434 	movhi	r2,16
    bca8:	8c000234 	orhi	r16,r17,8
    bcac:	10bfffc4 	addi	r2,r2,-1
    bcb0:	3027883a 	mov	r19,r6
    bcb4:	80a0703a 	and	r16,r16,r2
    bcb8:	902d883a 	mov	r22,r18
    bcbc:	003eac06 	br	b770 <__muldf3+0x31c>

0000bcc0 <__subdf3>:
    bcc0:	02000434 	movhi	r8,16
    bcc4:	423fffc4 	addi	r8,r8,-1
    bcc8:	defffb04 	addi	sp,sp,-20
    bccc:	2a14703a 	and	r10,r5,r8
    bcd0:	3812d53a 	srli	r9,r7,20
    bcd4:	3a10703a 	and	r8,r7,r8
    bcd8:	2006d77a 	srli	r3,r4,29
    bcdc:	3004d77a 	srli	r2,r6,29
    bce0:	dc000015 	stw	r16,0(sp)
    bce4:	501490fa 	slli	r10,r10,3
    bce8:	2820d53a 	srli	r16,r5,20
    bcec:	401090fa 	slli	r8,r8,3
    bcf0:	dc800215 	stw	r18,8(sp)
    bcf4:	dc400115 	stw	r17,4(sp)
    bcf8:	dfc00415 	stw	ra,16(sp)
    bcfc:	202290fa 	slli	r17,r4,3
    bd00:	dcc00315 	stw	r19,12(sp)
    bd04:	4a41ffcc 	andi	r9,r9,2047
    bd08:	0101ffc4 	movi	r4,2047
    bd0c:	2824d7fa 	srli	r18,r5,31
    bd10:	8401ffcc 	andi	r16,r16,2047
    bd14:	50c6b03a 	or	r3,r10,r3
    bd18:	380ed7fa 	srli	r7,r7,31
    bd1c:	408ab03a 	or	r5,r8,r2
    bd20:	300c90fa 	slli	r6,r6,3
    bd24:	49009626 	beq	r9,r4,bf80 <__subdf3+0x2c0>
    bd28:	39c0005c 	xori	r7,r7,1
    bd2c:	8245c83a 	sub	r2,r16,r9
    bd30:	3c807426 	beq	r7,r18,bf04 <__subdf3+0x244>
    bd34:	0080af0e 	bge	zero,r2,bff4 <__subdf3+0x334>
    bd38:	48002a1e 	bne	r9,zero,bde4 <__subdf3+0x124>
    bd3c:	2988b03a 	or	r4,r5,r6
    bd40:	20009a1e 	bne	r4,zero,bfac <__subdf3+0x2ec>
    bd44:	888001cc 	andi	r2,r17,7
    bd48:	10000726 	beq	r2,zero,bd68 <__subdf3+0xa8>
    bd4c:	888003cc 	andi	r2,r17,15
    bd50:	01000104 	movi	r4,4
    bd54:	11000426 	beq	r2,r4,bd68 <__subdf3+0xa8>
    bd58:	890b883a 	add	r5,r17,r4
    bd5c:	2c63803a 	cmpltu	r17,r5,r17
    bd60:	1c47883a 	add	r3,r3,r17
    bd64:	2823883a 	mov	r17,r5
    bd68:	1880202c 	andhi	r2,r3,128
    bd6c:	10005926 	beq	r2,zero,bed4 <__subdf3+0x214>
    bd70:	84000044 	addi	r16,r16,1
    bd74:	0081ffc4 	movi	r2,2047
    bd78:	8080be26 	beq	r16,r2,c074 <__subdf3+0x3b4>
    bd7c:	017fe034 	movhi	r5,65408
    bd80:	297fffc4 	addi	r5,r5,-1
    bd84:	1946703a 	and	r3,r3,r5
    bd88:	1804977a 	slli	r2,r3,29
    bd8c:	1806927a 	slli	r3,r3,9
    bd90:	8822d0fa 	srli	r17,r17,3
    bd94:	8401ffcc 	andi	r16,r16,2047
    bd98:	180ad33a 	srli	r5,r3,12
    bd9c:	9100004c 	andi	r4,r18,1
    bda0:	1444b03a 	or	r2,r2,r17
    bda4:	80c1ffcc 	andi	r3,r16,2047
    bda8:	1820953a 	slli	r16,r3,20
    bdac:	20c03fcc 	andi	r3,r4,255
    bdb0:	180897fa 	slli	r4,r3,31
    bdb4:	00c00434 	movhi	r3,16
    bdb8:	18ffffc4 	addi	r3,r3,-1
    bdbc:	28c6703a 	and	r3,r5,r3
    bdc0:	1c06b03a 	or	r3,r3,r16
    bdc4:	1906b03a 	or	r3,r3,r4
    bdc8:	dfc00417 	ldw	ra,16(sp)
    bdcc:	dcc00317 	ldw	r19,12(sp)
    bdd0:	dc800217 	ldw	r18,8(sp)
    bdd4:	dc400117 	ldw	r17,4(sp)
    bdd8:	dc000017 	ldw	r16,0(sp)
    bddc:	dec00504 	addi	sp,sp,20
    bde0:	f800283a 	ret
    bde4:	0101ffc4 	movi	r4,2047
    bde8:	813fd626 	beq	r16,r4,bd44 <__subdf3+0x84>
    bdec:	29402034 	orhi	r5,r5,128
    bdf0:	01000e04 	movi	r4,56
    bdf4:	2080a316 	blt	r4,r2,c084 <__subdf3+0x3c4>
    bdf8:	010007c4 	movi	r4,31
    bdfc:	2080c616 	blt	r4,r2,c118 <__subdf3+0x458>
    be00:	01000804 	movi	r4,32
    be04:	2089c83a 	sub	r4,r4,r2
    be08:	2910983a 	sll	r8,r5,r4
    be0c:	308ed83a 	srl	r7,r6,r2
    be10:	3108983a 	sll	r4,r6,r4
    be14:	2884d83a 	srl	r2,r5,r2
    be18:	41ccb03a 	or	r6,r8,r7
    be1c:	2008c03a 	cmpne	r4,r4,zero
    be20:	310cb03a 	or	r6,r6,r4
    be24:	898dc83a 	sub	r6,r17,r6
    be28:	89a3803a 	cmpltu	r17,r17,r6
    be2c:	1887c83a 	sub	r3,r3,r2
    be30:	1c47c83a 	sub	r3,r3,r17
    be34:	3023883a 	mov	r17,r6
    be38:	1880202c 	andhi	r2,r3,128
    be3c:	10002326 	beq	r2,zero,becc <__subdf3+0x20c>
    be40:	04c02034 	movhi	r19,128
    be44:	9cffffc4 	addi	r19,r19,-1
    be48:	1ce6703a 	and	r19,r3,r19
    be4c:	98007a26 	beq	r19,zero,c038 <__subdf3+0x378>
    be50:	9809883a 	mov	r4,r19
    be54:	000c7c00 	call	c7c0 <__clzsi2>
    be58:	113ffe04 	addi	r4,r2,-8
    be5c:	00c007c4 	movi	r3,31
    be60:	19007b16 	blt	r3,r4,c050 <__subdf3+0x390>
    be64:	00800804 	movi	r2,32
    be68:	1105c83a 	sub	r2,r2,r4
    be6c:	8884d83a 	srl	r2,r17,r2
    be70:	9906983a 	sll	r3,r19,r4
    be74:	8922983a 	sll	r17,r17,r4
    be78:	10c4b03a 	or	r2,r2,r3
    be7c:	24007816 	blt	r4,r16,c060 <__subdf3+0x3a0>
    be80:	2421c83a 	sub	r16,r4,r16
    be84:	80c00044 	addi	r3,r16,1
    be88:	010007c4 	movi	r4,31
    be8c:	20c09516 	blt	r4,r3,c0e4 <__subdf3+0x424>
    be90:	01400804 	movi	r5,32
    be94:	28cbc83a 	sub	r5,r5,r3
    be98:	88c8d83a 	srl	r4,r17,r3
    be9c:	8962983a 	sll	r17,r17,r5
    bea0:	114a983a 	sll	r5,r2,r5
    bea4:	10c6d83a 	srl	r3,r2,r3
    bea8:	8804c03a 	cmpne	r2,r17,zero
    beac:	290ab03a 	or	r5,r5,r4
    beb0:	28a2b03a 	or	r17,r5,r2
    beb4:	0021883a 	mov	r16,zero
    beb8:	003fa206 	br	bd44 <__subdf3+0x84>
    bebc:	2090b03a 	or	r8,r4,r2
    bec0:	40018e26 	beq	r8,zero,c4fc <__subdf3+0x83c>
    bec4:	1007883a 	mov	r3,r2
    bec8:	2023883a 	mov	r17,r4
    becc:	888001cc 	andi	r2,r17,7
    bed0:	103f9e1e 	bne	r2,zero,bd4c <__subdf3+0x8c>
    bed4:	1804977a 	slli	r2,r3,29
    bed8:	8822d0fa 	srli	r17,r17,3
    bedc:	1810d0fa 	srli	r8,r3,3
    bee0:	9100004c 	andi	r4,r18,1
    bee4:	1444b03a 	or	r2,r2,r17
    bee8:	00c1ffc4 	movi	r3,2047
    beec:	80c02826 	beq	r16,r3,bf90 <__subdf3+0x2d0>
    bef0:	01400434 	movhi	r5,16
    bef4:	297fffc4 	addi	r5,r5,-1
    bef8:	80e0703a 	and	r16,r16,r3
    befc:	414a703a 	and	r5,r8,r5
    bf00:	003fa806 	br	bda4 <__subdf3+0xe4>
    bf04:	0080630e 	bge	zero,r2,c094 <__subdf3+0x3d4>
    bf08:	48003026 	beq	r9,zero,bfcc <__subdf3+0x30c>
    bf0c:	0101ffc4 	movi	r4,2047
    bf10:	813f8c26 	beq	r16,r4,bd44 <__subdf3+0x84>
    bf14:	29402034 	orhi	r5,r5,128
    bf18:	01000e04 	movi	r4,56
    bf1c:	2080a90e 	bge	r4,r2,c1c4 <__subdf3+0x504>
    bf20:	298cb03a 	or	r6,r5,r6
    bf24:	3012c03a 	cmpne	r9,r6,zero
    bf28:	0005883a 	mov	r2,zero
    bf2c:	4c53883a 	add	r9,r9,r17
    bf30:	4c63803a 	cmpltu	r17,r9,r17
    bf34:	10c7883a 	add	r3,r2,r3
    bf38:	88c7883a 	add	r3,r17,r3
    bf3c:	4823883a 	mov	r17,r9
    bf40:	1880202c 	andhi	r2,r3,128
    bf44:	1000d026 	beq	r2,zero,c288 <__subdf3+0x5c8>
    bf48:	84000044 	addi	r16,r16,1
    bf4c:	0081ffc4 	movi	r2,2047
    bf50:	8080fe26 	beq	r16,r2,c34c <__subdf3+0x68c>
    bf54:	00bfe034 	movhi	r2,65408
    bf58:	10bfffc4 	addi	r2,r2,-1
    bf5c:	1886703a 	and	r3,r3,r2
    bf60:	880ad07a 	srli	r5,r17,1
    bf64:	180497fa 	slli	r2,r3,31
    bf68:	8900004c 	andi	r4,r17,1
    bf6c:	2922b03a 	or	r17,r5,r4
    bf70:	1806d07a 	srli	r3,r3,1
    bf74:	1462b03a 	or	r17,r2,r17
    bf78:	3825883a 	mov	r18,r7
    bf7c:	003f7106 	br	bd44 <__subdf3+0x84>
    bf80:	2984b03a 	or	r2,r5,r6
    bf84:	103f6826 	beq	r2,zero,bd28 <__subdf3+0x68>
    bf88:	39c03fcc 	andi	r7,r7,255
    bf8c:	003f6706 	br	bd2c <__subdf3+0x6c>
    bf90:	4086b03a 	or	r3,r8,r2
    bf94:	18015226 	beq	r3,zero,c4e0 <__subdf3+0x820>
    bf98:	00c00434 	movhi	r3,16
    bf9c:	41400234 	orhi	r5,r8,8
    bfa0:	18ffffc4 	addi	r3,r3,-1
    bfa4:	28ca703a 	and	r5,r5,r3
    bfa8:	003f7e06 	br	bda4 <__subdf3+0xe4>
    bfac:	10bfffc4 	addi	r2,r2,-1
    bfb0:	1000491e 	bne	r2,zero,c0d8 <__subdf3+0x418>
    bfb4:	898fc83a 	sub	r7,r17,r6
    bfb8:	89e3803a 	cmpltu	r17,r17,r7
    bfbc:	1947c83a 	sub	r3,r3,r5
    bfc0:	1c47c83a 	sub	r3,r3,r17
    bfc4:	3823883a 	mov	r17,r7
    bfc8:	003f9b06 	br	be38 <__subdf3+0x178>
    bfcc:	2988b03a 	or	r4,r5,r6
    bfd0:	203f5c26 	beq	r4,zero,bd44 <__subdf3+0x84>
    bfd4:	10bfffc4 	addi	r2,r2,-1
    bfd8:	1000931e 	bne	r2,zero,c228 <__subdf3+0x568>
    bfdc:	898d883a 	add	r6,r17,r6
    bfe0:	3463803a 	cmpltu	r17,r6,r17
    bfe4:	1947883a 	add	r3,r3,r5
    bfe8:	88c7883a 	add	r3,r17,r3
    bfec:	3023883a 	mov	r17,r6
    bff0:	003fd306 	br	bf40 <__subdf3+0x280>
    bff4:	1000541e 	bne	r2,zero,c148 <__subdf3+0x488>
    bff8:	80800044 	addi	r2,r16,1
    bffc:	1081ffcc 	andi	r2,r2,2047
    c000:	01000044 	movi	r4,1
    c004:	2080a20e 	bge	r4,r2,c290 <__subdf3+0x5d0>
    c008:	8989c83a 	sub	r4,r17,r6
    c00c:	8905803a 	cmpltu	r2,r17,r4
    c010:	1967c83a 	sub	r19,r3,r5
    c014:	98a7c83a 	sub	r19,r19,r2
    c018:	9880202c 	andhi	r2,r19,128
    c01c:	10006326 	beq	r2,zero,c1ac <__subdf3+0x4ec>
    c020:	3463c83a 	sub	r17,r6,r17
    c024:	28c7c83a 	sub	r3,r5,r3
    c028:	344d803a 	cmpltu	r6,r6,r17
    c02c:	19a7c83a 	sub	r19,r3,r6
    c030:	3825883a 	mov	r18,r7
    c034:	983f861e 	bne	r19,zero,be50 <__subdf3+0x190>
    c038:	8809883a 	mov	r4,r17
    c03c:	000c7c00 	call	c7c0 <__clzsi2>
    c040:	10800804 	addi	r2,r2,32
    c044:	113ffe04 	addi	r4,r2,-8
    c048:	00c007c4 	movi	r3,31
    c04c:	193f850e 	bge	r3,r4,be64 <__subdf3+0x1a4>
    c050:	10bff604 	addi	r2,r2,-40
    c054:	8884983a 	sll	r2,r17,r2
    c058:	0023883a 	mov	r17,zero
    c05c:	243f880e 	bge	r4,r16,be80 <__subdf3+0x1c0>
    c060:	00ffe034 	movhi	r3,65408
    c064:	18ffffc4 	addi	r3,r3,-1
    c068:	8121c83a 	sub	r16,r16,r4
    c06c:	10c6703a 	and	r3,r2,r3
    c070:	003f3406 	br	bd44 <__subdf3+0x84>
    c074:	9100004c 	andi	r4,r18,1
    c078:	000b883a 	mov	r5,zero
    c07c:	0005883a 	mov	r2,zero
    c080:	003f4806 	br	bda4 <__subdf3+0xe4>
    c084:	298cb03a 	or	r6,r5,r6
    c088:	300cc03a 	cmpne	r6,r6,zero
    c08c:	0005883a 	mov	r2,zero
    c090:	003f6406 	br	be24 <__subdf3+0x164>
    c094:	10009a1e 	bne	r2,zero,c300 <__subdf3+0x640>
    c098:	82400044 	addi	r9,r16,1
    c09c:	4881ffcc 	andi	r2,r9,2047
    c0a0:	02800044 	movi	r10,1
    c0a4:	5080670e 	bge	r10,r2,c244 <__subdf3+0x584>
    c0a8:	0081ffc4 	movi	r2,2047
    c0ac:	4880af26 	beq	r9,r2,c36c <__subdf3+0x6ac>
    c0b0:	898d883a 	add	r6,r17,r6
    c0b4:	1945883a 	add	r2,r3,r5
    c0b8:	3447803a 	cmpltu	r3,r6,r17
    c0bc:	1887883a 	add	r3,r3,r2
    c0c0:	182297fa 	slli	r17,r3,31
    c0c4:	300cd07a 	srli	r6,r6,1
    c0c8:	1806d07a 	srli	r3,r3,1
    c0cc:	4821883a 	mov	r16,r9
    c0d0:	89a2b03a 	or	r17,r17,r6
    c0d4:	003f1b06 	br	bd44 <__subdf3+0x84>
    c0d8:	0101ffc4 	movi	r4,2047
    c0dc:	813f441e 	bne	r16,r4,bdf0 <__subdf3+0x130>
    c0e0:	003f1806 	br	bd44 <__subdf3+0x84>
    c0e4:	843ff844 	addi	r16,r16,-31
    c0e8:	01400804 	movi	r5,32
    c0ec:	1408d83a 	srl	r4,r2,r16
    c0f0:	19405026 	beq	r3,r5,c234 <__subdf3+0x574>
    c0f4:	01401004 	movi	r5,64
    c0f8:	28c7c83a 	sub	r3,r5,r3
    c0fc:	10c4983a 	sll	r2,r2,r3
    c100:	88a2b03a 	or	r17,r17,r2
    c104:	8822c03a 	cmpne	r17,r17,zero
    c108:	2462b03a 	or	r17,r4,r17
    c10c:	0007883a 	mov	r3,zero
    c110:	0021883a 	mov	r16,zero
    c114:	003f6d06 	br	becc <__subdf3+0x20c>
    c118:	11fff804 	addi	r7,r2,-32
    c11c:	01000804 	movi	r4,32
    c120:	29ced83a 	srl	r7,r5,r7
    c124:	11004526 	beq	r2,r4,c23c <__subdf3+0x57c>
    c128:	01001004 	movi	r4,64
    c12c:	2089c83a 	sub	r4,r4,r2
    c130:	2904983a 	sll	r2,r5,r4
    c134:	118cb03a 	or	r6,r2,r6
    c138:	300cc03a 	cmpne	r6,r6,zero
    c13c:	398cb03a 	or	r6,r7,r6
    c140:	0005883a 	mov	r2,zero
    c144:	003f3706 	br	be24 <__subdf3+0x164>
    c148:	80002a26 	beq	r16,zero,c1f4 <__subdf3+0x534>
    c14c:	0101ffc4 	movi	r4,2047
    c150:	49006626 	beq	r9,r4,c2ec <__subdf3+0x62c>
    c154:	0085c83a 	sub	r2,zero,r2
    c158:	18c02034 	orhi	r3,r3,128
    c15c:	01000e04 	movi	r4,56
    c160:	20807e16 	blt	r4,r2,c35c <__subdf3+0x69c>
    c164:	010007c4 	movi	r4,31
    c168:	2080e716 	blt	r4,r2,c508 <__subdf3+0x848>
    c16c:	01000804 	movi	r4,32
    c170:	2089c83a 	sub	r4,r4,r2
    c174:	1914983a 	sll	r10,r3,r4
    c178:	8890d83a 	srl	r8,r17,r2
    c17c:	8908983a 	sll	r4,r17,r4
    c180:	1884d83a 	srl	r2,r3,r2
    c184:	5222b03a 	or	r17,r10,r8
    c188:	2006c03a 	cmpne	r3,r4,zero
    c18c:	88e2b03a 	or	r17,r17,r3
    c190:	3463c83a 	sub	r17,r6,r17
    c194:	2885c83a 	sub	r2,r5,r2
    c198:	344d803a 	cmpltu	r6,r6,r17
    c19c:	1187c83a 	sub	r3,r2,r6
    c1a0:	4821883a 	mov	r16,r9
    c1a4:	3825883a 	mov	r18,r7
    c1a8:	003f2306 	br	be38 <__subdf3+0x178>
    c1ac:	24d0b03a 	or	r8,r4,r19
    c1b0:	40001b1e 	bne	r8,zero,c220 <__subdf3+0x560>
    c1b4:	0005883a 	mov	r2,zero
    c1b8:	0009883a 	mov	r4,zero
    c1bc:	0021883a 	mov	r16,zero
    c1c0:	003f4906 	br	bee8 <__subdf3+0x228>
    c1c4:	010007c4 	movi	r4,31
    c1c8:	20803a16 	blt	r4,r2,c2b4 <__subdf3+0x5f4>
    c1cc:	01000804 	movi	r4,32
    c1d0:	2089c83a 	sub	r4,r4,r2
    c1d4:	2912983a 	sll	r9,r5,r4
    c1d8:	3090d83a 	srl	r8,r6,r2
    c1dc:	3108983a 	sll	r4,r6,r4
    c1e0:	2884d83a 	srl	r2,r5,r2
    c1e4:	4a12b03a 	or	r9,r9,r8
    c1e8:	2008c03a 	cmpne	r4,r4,zero
    c1ec:	4912b03a 	or	r9,r9,r4
    c1f0:	003f4e06 	br	bf2c <__subdf3+0x26c>
    c1f4:	1c48b03a 	or	r4,r3,r17
    c1f8:	20003c26 	beq	r4,zero,c2ec <__subdf3+0x62c>
    c1fc:	0084303a 	nor	r2,zero,r2
    c200:	1000381e 	bne	r2,zero,c2e4 <__subdf3+0x624>
    c204:	3463c83a 	sub	r17,r6,r17
    c208:	28c5c83a 	sub	r2,r5,r3
    c20c:	344d803a 	cmpltu	r6,r6,r17
    c210:	1187c83a 	sub	r3,r2,r6
    c214:	4821883a 	mov	r16,r9
    c218:	3825883a 	mov	r18,r7
    c21c:	003f0606 	br	be38 <__subdf3+0x178>
    c220:	2023883a 	mov	r17,r4
    c224:	003f0906 	br	be4c <__subdf3+0x18c>
    c228:	0101ffc4 	movi	r4,2047
    c22c:	813f3a1e 	bne	r16,r4,bf18 <__subdf3+0x258>
    c230:	003ec406 	br	bd44 <__subdf3+0x84>
    c234:	0005883a 	mov	r2,zero
    c238:	003fb106 	br	c100 <__subdf3+0x440>
    c23c:	0005883a 	mov	r2,zero
    c240:	003fbc06 	br	c134 <__subdf3+0x474>
    c244:	1c44b03a 	or	r2,r3,r17
    c248:	80008e1e 	bne	r16,zero,c484 <__subdf3+0x7c4>
    c24c:	1000c826 	beq	r2,zero,c570 <__subdf3+0x8b0>
    c250:	2984b03a 	or	r2,r5,r6
    c254:	103ebb26 	beq	r2,zero,bd44 <__subdf3+0x84>
    c258:	8989883a 	add	r4,r17,r6
    c25c:	1945883a 	add	r2,r3,r5
    c260:	2447803a 	cmpltu	r3,r4,r17
    c264:	1887883a 	add	r3,r3,r2
    c268:	1880202c 	andhi	r2,r3,128
    c26c:	2023883a 	mov	r17,r4
    c270:	103f1626 	beq	r2,zero,becc <__subdf3+0x20c>
    c274:	00bfe034 	movhi	r2,65408
    c278:	10bfffc4 	addi	r2,r2,-1
    c27c:	5021883a 	mov	r16,r10
    c280:	1886703a 	and	r3,r3,r2
    c284:	003eaf06 	br	bd44 <__subdf3+0x84>
    c288:	3825883a 	mov	r18,r7
    c28c:	003f0f06 	br	becc <__subdf3+0x20c>
    c290:	1c44b03a 	or	r2,r3,r17
    c294:	8000251e 	bne	r16,zero,c32c <__subdf3+0x66c>
    c298:	1000661e 	bne	r2,zero,c434 <__subdf3+0x774>
    c29c:	2990b03a 	or	r8,r5,r6
    c2a0:	40009626 	beq	r8,zero,c4fc <__subdf3+0x83c>
    c2a4:	2807883a 	mov	r3,r5
    c2a8:	3023883a 	mov	r17,r6
    c2ac:	3825883a 	mov	r18,r7
    c2b0:	003ea406 	br	bd44 <__subdf3+0x84>
    c2b4:	127ff804 	addi	r9,r2,-32
    c2b8:	01000804 	movi	r4,32
    c2bc:	2a52d83a 	srl	r9,r5,r9
    c2c0:	11008c26 	beq	r2,r4,c4f4 <__subdf3+0x834>
    c2c4:	01001004 	movi	r4,64
    c2c8:	2085c83a 	sub	r2,r4,r2
    c2cc:	2884983a 	sll	r2,r5,r2
    c2d0:	118cb03a 	or	r6,r2,r6
    c2d4:	300cc03a 	cmpne	r6,r6,zero
    c2d8:	4992b03a 	or	r9,r9,r6
    c2dc:	0005883a 	mov	r2,zero
    c2e0:	003f1206 	br	bf2c <__subdf3+0x26c>
    c2e4:	0101ffc4 	movi	r4,2047
    c2e8:	493f9c1e 	bne	r9,r4,c15c <__subdf3+0x49c>
    c2ec:	2807883a 	mov	r3,r5
    c2f0:	3023883a 	mov	r17,r6
    c2f4:	4821883a 	mov	r16,r9
    c2f8:	3825883a 	mov	r18,r7
    c2fc:	003e9106 	br	bd44 <__subdf3+0x84>
    c300:	80001f1e 	bne	r16,zero,c380 <__subdf3+0x6c0>
    c304:	1c48b03a 	or	r4,r3,r17
    c308:	20005a26 	beq	r4,zero,c474 <__subdf3+0x7b4>
    c30c:	0084303a 	nor	r2,zero,r2
    c310:	1000561e 	bne	r2,zero,c46c <__subdf3+0x7ac>
    c314:	89a3883a 	add	r17,r17,r6
    c318:	1945883a 	add	r2,r3,r5
    c31c:	898d803a 	cmpltu	r6,r17,r6
    c320:	3087883a 	add	r3,r6,r2
    c324:	4821883a 	mov	r16,r9
    c328:	003f0506 	br	bf40 <__subdf3+0x280>
    c32c:	10002b1e 	bne	r2,zero,c3dc <__subdf3+0x71c>
    c330:	2984b03a 	or	r2,r5,r6
    c334:	10008026 	beq	r2,zero,c538 <__subdf3+0x878>
    c338:	2807883a 	mov	r3,r5
    c33c:	3023883a 	mov	r17,r6
    c340:	3825883a 	mov	r18,r7
    c344:	0401ffc4 	movi	r16,2047
    c348:	003e7e06 	br	bd44 <__subdf3+0x84>
    c34c:	3809883a 	mov	r4,r7
    c350:	0011883a 	mov	r8,zero
    c354:	0005883a 	mov	r2,zero
    c358:	003ee306 	br	bee8 <__subdf3+0x228>
    c35c:	1c62b03a 	or	r17,r3,r17
    c360:	8822c03a 	cmpne	r17,r17,zero
    c364:	0005883a 	mov	r2,zero
    c368:	003f8906 	br	c190 <__subdf3+0x4d0>
    c36c:	3809883a 	mov	r4,r7
    c370:	4821883a 	mov	r16,r9
    c374:	0011883a 	mov	r8,zero
    c378:	0005883a 	mov	r2,zero
    c37c:	003eda06 	br	bee8 <__subdf3+0x228>
    c380:	0101ffc4 	movi	r4,2047
    c384:	49003b26 	beq	r9,r4,c474 <__subdf3+0x7b4>
    c388:	0085c83a 	sub	r2,zero,r2
    c38c:	18c02034 	orhi	r3,r3,128
    c390:	01000e04 	movi	r4,56
    c394:	20806e16 	blt	r4,r2,c550 <__subdf3+0x890>
    c398:	010007c4 	movi	r4,31
    c39c:	20807716 	blt	r4,r2,c57c <__subdf3+0x8bc>
    c3a0:	01000804 	movi	r4,32
    c3a4:	2089c83a 	sub	r4,r4,r2
    c3a8:	1914983a 	sll	r10,r3,r4
    c3ac:	8890d83a 	srl	r8,r17,r2
    c3b0:	8908983a 	sll	r4,r17,r4
    c3b4:	1884d83a 	srl	r2,r3,r2
    c3b8:	5222b03a 	or	r17,r10,r8
    c3bc:	2006c03a 	cmpne	r3,r4,zero
    c3c0:	88e2b03a 	or	r17,r17,r3
    c3c4:	89a3883a 	add	r17,r17,r6
    c3c8:	1145883a 	add	r2,r2,r5
    c3cc:	898d803a 	cmpltu	r6,r17,r6
    c3d0:	3087883a 	add	r3,r6,r2
    c3d4:	4821883a 	mov	r16,r9
    c3d8:	003ed906 	br	bf40 <__subdf3+0x280>
    c3dc:	2984b03a 	or	r2,r5,r6
    c3e0:	10004226 	beq	r2,zero,c4ec <__subdf3+0x82c>
    c3e4:	1808d0fa 	srli	r4,r3,3
    c3e8:	8822d0fa 	srli	r17,r17,3
    c3ec:	1806977a 	slli	r3,r3,29
    c3f0:	2080022c 	andhi	r2,r4,8
    c3f4:	1c62b03a 	or	r17,r3,r17
    c3f8:	10000826 	beq	r2,zero,c41c <__subdf3+0x75c>
    c3fc:	2812d0fa 	srli	r9,r5,3
    c400:	4880022c 	andhi	r2,r9,8
    c404:	1000051e 	bne	r2,zero,c41c <__subdf3+0x75c>
    c408:	300cd0fa 	srli	r6,r6,3
    c40c:	2804977a 	slli	r2,r5,29
    c410:	4809883a 	mov	r4,r9
    c414:	3825883a 	mov	r18,r7
    c418:	11a2b03a 	or	r17,r2,r6
    c41c:	8806d77a 	srli	r3,r17,29
    c420:	200890fa 	slli	r4,r4,3
    c424:	882290fa 	slli	r17,r17,3
    c428:	0401ffc4 	movi	r16,2047
    c42c:	1906b03a 	or	r3,r3,r4
    c430:	003e4406 	br	bd44 <__subdf3+0x84>
    c434:	2984b03a 	or	r2,r5,r6
    c438:	103e4226 	beq	r2,zero,bd44 <__subdf3+0x84>
    c43c:	8989c83a 	sub	r4,r17,r6
    c440:	8911803a 	cmpltu	r8,r17,r4
    c444:	1945c83a 	sub	r2,r3,r5
    c448:	1205c83a 	sub	r2,r2,r8
    c44c:	1200202c 	andhi	r8,r2,128
    c450:	403e9a26 	beq	r8,zero,bebc <__subdf3+0x1fc>
    c454:	3463c83a 	sub	r17,r6,r17
    c458:	28c5c83a 	sub	r2,r5,r3
    c45c:	344d803a 	cmpltu	r6,r6,r17
    c460:	1187c83a 	sub	r3,r2,r6
    c464:	3825883a 	mov	r18,r7
    c468:	003e3606 	br	bd44 <__subdf3+0x84>
    c46c:	0101ffc4 	movi	r4,2047
    c470:	493fc71e 	bne	r9,r4,c390 <__subdf3+0x6d0>
    c474:	2807883a 	mov	r3,r5
    c478:	3023883a 	mov	r17,r6
    c47c:	4821883a 	mov	r16,r9
    c480:	003e3006 	br	bd44 <__subdf3+0x84>
    c484:	10003626 	beq	r2,zero,c560 <__subdf3+0x8a0>
    c488:	2984b03a 	or	r2,r5,r6
    c48c:	10001726 	beq	r2,zero,c4ec <__subdf3+0x82c>
    c490:	1808d0fa 	srli	r4,r3,3
    c494:	8822d0fa 	srli	r17,r17,3
    c498:	1806977a 	slli	r3,r3,29
    c49c:	2080022c 	andhi	r2,r4,8
    c4a0:	1c62b03a 	or	r17,r3,r17
    c4a4:	10000726 	beq	r2,zero,c4c4 <__subdf3+0x804>
    c4a8:	2812d0fa 	srli	r9,r5,3
    c4ac:	4880022c 	andhi	r2,r9,8
    c4b0:	1000041e 	bne	r2,zero,c4c4 <__subdf3+0x804>
    c4b4:	300cd0fa 	srli	r6,r6,3
    c4b8:	2804977a 	slli	r2,r5,29
    c4bc:	4809883a 	mov	r4,r9
    c4c0:	11a2b03a 	or	r17,r2,r6
    c4c4:	8806d77a 	srli	r3,r17,29
    c4c8:	200890fa 	slli	r4,r4,3
    c4cc:	882290fa 	slli	r17,r17,3
    c4d0:	3825883a 	mov	r18,r7
    c4d4:	1906b03a 	or	r3,r3,r4
    c4d8:	0401ffc4 	movi	r16,2047
    c4dc:	003e1906 	br	bd44 <__subdf3+0x84>
    c4e0:	000b883a 	mov	r5,zero
    c4e4:	0005883a 	mov	r2,zero
    c4e8:	003e2e06 	br	bda4 <__subdf3+0xe4>
    c4ec:	0401ffc4 	movi	r16,2047
    c4f0:	003e1406 	br	bd44 <__subdf3+0x84>
    c4f4:	0005883a 	mov	r2,zero
    c4f8:	003f7506 	br	c2d0 <__subdf3+0x610>
    c4fc:	0005883a 	mov	r2,zero
    c500:	0009883a 	mov	r4,zero
    c504:	003e7806 	br	bee8 <__subdf3+0x228>
    c508:	123ff804 	addi	r8,r2,-32
    c50c:	01000804 	movi	r4,32
    c510:	1a10d83a 	srl	r8,r3,r8
    c514:	11002526 	beq	r2,r4,c5ac <__subdf3+0x8ec>
    c518:	01001004 	movi	r4,64
    c51c:	2085c83a 	sub	r2,r4,r2
    c520:	1884983a 	sll	r2,r3,r2
    c524:	1444b03a 	or	r2,r2,r17
    c528:	1004c03a 	cmpne	r2,r2,zero
    c52c:	40a2b03a 	or	r17,r8,r2
    c530:	0005883a 	mov	r2,zero
    c534:	003f1606 	br	c190 <__subdf3+0x4d0>
    c538:	02000434 	movhi	r8,16
    c53c:	0009883a 	mov	r4,zero
    c540:	423fffc4 	addi	r8,r8,-1
    c544:	00bfffc4 	movi	r2,-1
    c548:	0401ffc4 	movi	r16,2047
    c54c:	003e6606 	br	bee8 <__subdf3+0x228>
    c550:	1c62b03a 	or	r17,r3,r17
    c554:	8822c03a 	cmpne	r17,r17,zero
    c558:	0005883a 	mov	r2,zero
    c55c:	003f9906 	br	c3c4 <__subdf3+0x704>
    c560:	2807883a 	mov	r3,r5
    c564:	3023883a 	mov	r17,r6
    c568:	0401ffc4 	movi	r16,2047
    c56c:	003df506 	br	bd44 <__subdf3+0x84>
    c570:	2807883a 	mov	r3,r5
    c574:	3023883a 	mov	r17,r6
    c578:	003df206 	br	bd44 <__subdf3+0x84>
    c57c:	123ff804 	addi	r8,r2,-32
    c580:	01000804 	movi	r4,32
    c584:	1a10d83a 	srl	r8,r3,r8
    c588:	11000a26 	beq	r2,r4,c5b4 <__subdf3+0x8f4>
    c58c:	01001004 	movi	r4,64
    c590:	2085c83a 	sub	r2,r4,r2
    c594:	1884983a 	sll	r2,r3,r2
    c598:	1444b03a 	or	r2,r2,r17
    c59c:	1004c03a 	cmpne	r2,r2,zero
    c5a0:	40a2b03a 	or	r17,r8,r2
    c5a4:	0005883a 	mov	r2,zero
    c5a8:	003f8606 	br	c3c4 <__subdf3+0x704>
    c5ac:	0005883a 	mov	r2,zero
    c5b0:	003fdc06 	br	c524 <__subdf3+0x864>
    c5b4:	0005883a 	mov	r2,zero
    c5b8:	003ff706 	br	c598 <__subdf3+0x8d8>

0000c5bc <__fixdfsi>:
    c5bc:	280cd53a 	srli	r6,r5,20
    c5c0:	00c00434 	movhi	r3,16
    c5c4:	18ffffc4 	addi	r3,r3,-1
    c5c8:	3181ffcc 	andi	r6,r6,2047
    c5cc:	01c0ff84 	movi	r7,1022
    c5d0:	28c6703a 	and	r3,r5,r3
    c5d4:	280ad7fa 	srli	r5,r5,31
    c5d8:	3980120e 	bge	r7,r6,c624 <__fixdfsi+0x68>
    c5dc:	00810744 	movi	r2,1053
    c5e0:	11800c16 	blt	r2,r6,c614 <__fixdfsi+0x58>
    c5e4:	00810cc4 	movi	r2,1075
    c5e8:	1185c83a 	sub	r2,r2,r6
    c5ec:	01c007c4 	movi	r7,31
    c5f0:	18c00434 	orhi	r3,r3,16
    c5f4:	38800d16 	blt	r7,r2,c62c <__fixdfsi+0x70>
    c5f8:	31befb44 	addi	r6,r6,-1043
    c5fc:	2084d83a 	srl	r2,r4,r2
    c600:	1986983a 	sll	r3,r3,r6
    c604:	1884b03a 	or	r2,r3,r2
    c608:	28000726 	beq	r5,zero,c628 <__fixdfsi+0x6c>
    c60c:	0085c83a 	sub	r2,zero,r2
    c610:	f800283a 	ret
    c614:	00a00034 	movhi	r2,32768
    c618:	10bfffc4 	addi	r2,r2,-1
    c61c:	2885883a 	add	r2,r5,r2
    c620:	f800283a 	ret
    c624:	0005883a 	mov	r2,zero
    c628:	f800283a 	ret
    c62c:	008104c4 	movi	r2,1043
    c630:	1185c83a 	sub	r2,r2,r6
    c634:	1884d83a 	srl	r2,r3,r2
    c638:	003ff306 	br	c608 <__fixdfsi+0x4c>

0000c63c <__floatsidf>:
    c63c:	defffd04 	addi	sp,sp,-12
    c640:	dfc00215 	stw	ra,8(sp)
    c644:	dc400115 	stw	r17,4(sp)
    c648:	dc000015 	stw	r16,0(sp)
    c64c:	20002b26 	beq	r4,zero,c6fc <__floatsidf+0xc0>
    c650:	2023883a 	mov	r17,r4
    c654:	2020d7fa 	srli	r16,r4,31
    c658:	20002d16 	blt	r4,zero,c710 <__floatsidf+0xd4>
    c65c:	8809883a 	mov	r4,r17
    c660:	000c7c00 	call	c7c0 <__clzsi2>
    c664:	01410784 	movi	r5,1054
    c668:	288bc83a 	sub	r5,r5,r2
    c66c:	01010cc4 	movi	r4,1075
    c670:	2149c83a 	sub	r4,r4,r5
    c674:	00c007c4 	movi	r3,31
    c678:	1900160e 	bge	r3,r4,c6d4 <__floatsidf+0x98>
    c67c:	00c104c4 	movi	r3,1043
    c680:	1947c83a 	sub	r3,r3,r5
    c684:	88c6983a 	sll	r3,r17,r3
    c688:	00800434 	movhi	r2,16
    c68c:	10bfffc4 	addi	r2,r2,-1
    c690:	1886703a 	and	r3,r3,r2
    c694:	2941ffcc 	andi	r5,r5,2047
    c698:	800d883a 	mov	r6,r16
    c69c:	0005883a 	mov	r2,zero
    c6a0:	280a953a 	slli	r5,r5,20
    c6a4:	31803fcc 	andi	r6,r6,255
    c6a8:	01000434 	movhi	r4,16
    c6ac:	300c97fa 	slli	r6,r6,31
    c6b0:	213fffc4 	addi	r4,r4,-1
    c6b4:	1906703a 	and	r3,r3,r4
    c6b8:	1946b03a 	or	r3,r3,r5
    c6bc:	1986b03a 	or	r3,r3,r6
    c6c0:	dfc00217 	ldw	ra,8(sp)
    c6c4:	dc400117 	ldw	r17,4(sp)
    c6c8:	dc000017 	ldw	r16,0(sp)
    c6cc:	dec00304 	addi	sp,sp,12
    c6d0:	f800283a 	ret
    c6d4:	00c002c4 	movi	r3,11
    c6d8:	1887c83a 	sub	r3,r3,r2
    c6dc:	88c6d83a 	srl	r3,r17,r3
    c6e0:	8904983a 	sll	r2,r17,r4
    c6e4:	01000434 	movhi	r4,16
    c6e8:	213fffc4 	addi	r4,r4,-1
    c6ec:	2941ffcc 	andi	r5,r5,2047
    c6f0:	1906703a 	and	r3,r3,r4
    c6f4:	800d883a 	mov	r6,r16
    c6f8:	003fe906 	br	c6a0 <__floatsidf+0x64>
    c6fc:	000d883a 	mov	r6,zero
    c700:	000b883a 	mov	r5,zero
    c704:	0007883a 	mov	r3,zero
    c708:	0005883a 	mov	r2,zero
    c70c:	003fe406 	br	c6a0 <__floatsidf+0x64>
    c710:	0123c83a 	sub	r17,zero,r4
    c714:	003fd106 	br	c65c <__floatsidf+0x20>

0000c718 <__floatunsidf>:
    c718:	defffe04 	addi	sp,sp,-8
    c71c:	dc000015 	stw	r16,0(sp)
    c720:	dfc00115 	stw	ra,4(sp)
    c724:	2021883a 	mov	r16,r4
    c728:	20002226 	beq	r4,zero,c7b4 <__floatunsidf+0x9c>
    c72c:	000c7c00 	call	c7c0 <__clzsi2>
    c730:	01010784 	movi	r4,1054
    c734:	2089c83a 	sub	r4,r4,r2
    c738:	01810cc4 	movi	r6,1075
    c73c:	310dc83a 	sub	r6,r6,r4
    c740:	00c007c4 	movi	r3,31
    c744:	1980120e 	bge	r3,r6,c790 <__floatunsidf+0x78>
    c748:	00c104c4 	movi	r3,1043
    c74c:	1907c83a 	sub	r3,r3,r4
    c750:	80ca983a 	sll	r5,r16,r3
    c754:	00800434 	movhi	r2,16
    c758:	10bfffc4 	addi	r2,r2,-1
    c75c:	2101ffcc 	andi	r4,r4,2047
    c760:	0021883a 	mov	r16,zero
    c764:	288a703a 	and	r5,r5,r2
    c768:	2008953a 	slli	r4,r4,20
    c76c:	00c00434 	movhi	r3,16
    c770:	18ffffc4 	addi	r3,r3,-1
    c774:	28c6703a 	and	r3,r5,r3
    c778:	8005883a 	mov	r2,r16
    c77c:	1906b03a 	or	r3,r3,r4
    c780:	dfc00117 	ldw	ra,4(sp)
    c784:	dc000017 	ldw	r16,0(sp)
    c788:	dec00204 	addi	sp,sp,8
    c78c:	f800283a 	ret
    c790:	00c002c4 	movi	r3,11
    c794:	188bc83a 	sub	r5,r3,r2
    c798:	814ad83a 	srl	r5,r16,r5
    c79c:	00c00434 	movhi	r3,16
    c7a0:	18ffffc4 	addi	r3,r3,-1
    c7a4:	81a0983a 	sll	r16,r16,r6
    c7a8:	2101ffcc 	andi	r4,r4,2047
    c7ac:	28ca703a 	and	r5,r5,r3
    c7b0:	003fed06 	br	c768 <__floatunsidf+0x50>
    c7b4:	0009883a 	mov	r4,zero
    c7b8:	000b883a 	mov	r5,zero
    c7bc:	003fea06 	br	c768 <__floatunsidf+0x50>

0000c7c0 <__clzsi2>:
    c7c0:	00bfffd4 	movui	r2,65535
    c7c4:	11000536 	bltu	r2,r4,c7dc <__clzsi2+0x1c>
    c7c8:	00803fc4 	movi	r2,255
    c7cc:	11000f36 	bltu	r2,r4,c80c <__clzsi2+0x4c>
    c7d0:	00800804 	movi	r2,32
    c7d4:	0007883a 	mov	r3,zero
    c7d8:	00000506 	br	c7f0 <__clzsi2+0x30>
    c7dc:	00804034 	movhi	r2,256
    c7e0:	10bfffc4 	addi	r2,r2,-1
    c7e4:	11000c2e 	bgeu	r2,r4,c818 <__clzsi2+0x58>
    c7e8:	00800204 	movi	r2,8
    c7ec:	00c00604 	movi	r3,24
    c7f0:	20c8d83a 	srl	r4,r4,r3
    c7f4:	00c00074 	movhi	r3,1
    c7f8:	18f4f004 	addi	r3,r3,-11328
    c7fc:	1909883a 	add	r4,r3,r4
    c800:	20c00003 	ldbu	r3,0(r4)
    c804:	10c5c83a 	sub	r2,r2,r3
    c808:	f800283a 	ret
    c80c:	00800604 	movi	r2,24
    c810:	00c00204 	movi	r3,8
    c814:	003ff606 	br	c7f0 <__clzsi2+0x30>
    c818:	00800404 	movi	r2,16
    c81c:	1007883a 	mov	r3,r2
    c820:	003ff306 	br	c7f0 <__clzsi2+0x30>

0000c824 <__divsi3>:
    c824:	20001b16 	blt	r4,zero,c894 <__divsi3+0x70>
    c828:	000f883a 	mov	r7,zero
    c82c:	28001616 	blt	r5,zero,c888 <__divsi3+0x64>
    c830:	200d883a 	mov	r6,r4
    c834:	29001a2e 	bgeu	r5,r4,c8a0 <__divsi3+0x7c>
    c838:	00800804 	movi	r2,32
    c83c:	00c00044 	movi	r3,1
    c840:	00000106 	br	c848 <__divsi3+0x24>
    c844:	10000d26 	beq	r2,zero,c87c <__divsi3+0x58>
    c848:	294b883a 	add	r5,r5,r5
    c84c:	10bfffc4 	addi	r2,r2,-1
    c850:	18c7883a 	add	r3,r3,r3
    c854:	293ffb36 	bltu	r5,r4,c844 <__divsi3+0x20>
    c858:	0005883a 	mov	r2,zero
    c85c:	18000726 	beq	r3,zero,c87c <__divsi3+0x58>
    c860:	0005883a 	mov	r2,zero
    c864:	31400236 	bltu	r6,r5,c870 <__divsi3+0x4c>
    c868:	314dc83a 	sub	r6,r6,r5
    c86c:	10c4b03a 	or	r2,r2,r3
    c870:	1806d07a 	srli	r3,r3,1
    c874:	280ad07a 	srli	r5,r5,1
    c878:	183ffa1e 	bne	r3,zero,c864 <__divsi3+0x40>
    c87c:	38000126 	beq	r7,zero,c884 <__divsi3+0x60>
    c880:	0085c83a 	sub	r2,zero,r2
    c884:	f800283a 	ret
    c888:	014bc83a 	sub	r5,zero,r5
    c88c:	39c0005c 	xori	r7,r7,1
    c890:	003fe706 	br	c830 <__divsi3+0xc>
    c894:	0109c83a 	sub	r4,zero,r4
    c898:	01c00044 	movi	r7,1
    c89c:	003fe306 	br	c82c <__divsi3+0x8>
    c8a0:	00c00044 	movi	r3,1
    c8a4:	003fee06 	br	c860 <__divsi3+0x3c>

0000c8a8 <__modsi3>:
    c8a8:	20001716 	blt	r4,zero,c908 <__modsi3+0x60>
    c8ac:	000f883a 	mov	r7,zero
    c8b0:	2005883a 	mov	r2,r4
    c8b4:	28001216 	blt	r5,zero,c900 <__modsi3+0x58>
    c8b8:	2900162e 	bgeu	r5,r4,c914 <__modsi3+0x6c>
    c8bc:	01800804 	movi	r6,32
    c8c0:	00c00044 	movi	r3,1
    c8c4:	00000106 	br	c8cc <__modsi3+0x24>
    c8c8:	30000a26 	beq	r6,zero,c8f4 <__modsi3+0x4c>
    c8cc:	294b883a 	add	r5,r5,r5
    c8d0:	31bfffc4 	addi	r6,r6,-1
    c8d4:	18c7883a 	add	r3,r3,r3
    c8d8:	293ffb36 	bltu	r5,r4,c8c8 <__modsi3+0x20>
    c8dc:	18000526 	beq	r3,zero,c8f4 <__modsi3+0x4c>
    c8e0:	1806d07a 	srli	r3,r3,1
    c8e4:	11400136 	bltu	r2,r5,c8ec <__modsi3+0x44>
    c8e8:	1145c83a 	sub	r2,r2,r5
    c8ec:	280ad07a 	srli	r5,r5,1
    c8f0:	183ffb1e 	bne	r3,zero,c8e0 <__modsi3+0x38>
    c8f4:	38000126 	beq	r7,zero,c8fc <__modsi3+0x54>
    c8f8:	0085c83a 	sub	r2,zero,r2
    c8fc:	f800283a 	ret
    c900:	014bc83a 	sub	r5,zero,r5
    c904:	003fec06 	br	c8b8 <__modsi3+0x10>
    c908:	0109c83a 	sub	r4,zero,r4
    c90c:	01c00044 	movi	r7,1
    c910:	003fe706 	br	c8b0 <__modsi3+0x8>
    c914:	00c00044 	movi	r3,1
    c918:	003ff106 	br	c8e0 <__modsi3+0x38>

0000c91c <__udivsi3>:
    c91c:	200d883a 	mov	r6,r4
    c920:	2900152e 	bgeu	r5,r4,c978 <__udivsi3+0x5c>
    c924:	28001416 	blt	r5,zero,c978 <__udivsi3+0x5c>
    c928:	00800804 	movi	r2,32
    c92c:	00c00044 	movi	r3,1
    c930:	00000206 	br	c93c <__udivsi3+0x20>
    c934:	10000e26 	beq	r2,zero,c970 <__udivsi3+0x54>
    c938:	28000516 	blt	r5,zero,c950 <__udivsi3+0x34>
    c93c:	294b883a 	add	r5,r5,r5
    c940:	10bfffc4 	addi	r2,r2,-1
    c944:	18c7883a 	add	r3,r3,r3
    c948:	293ffa36 	bltu	r5,r4,c934 <__udivsi3+0x18>
    c94c:	18000826 	beq	r3,zero,c970 <__udivsi3+0x54>
    c950:	0005883a 	mov	r2,zero
    c954:	31400236 	bltu	r6,r5,c960 <__udivsi3+0x44>
    c958:	314dc83a 	sub	r6,r6,r5
    c95c:	10c4b03a 	or	r2,r2,r3
    c960:	1806d07a 	srli	r3,r3,1
    c964:	280ad07a 	srli	r5,r5,1
    c968:	183ffa1e 	bne	r3,zero,c954 <__udivsi3+0x38>
    c96c:	f800283a 	ret
    c970:	0005883a 	mov	r2,zero
    c974:	f800283a 	ret
    c978:	00c00044 	movi	r3,1
    c97c:	003ff406 	br	c950 <__udivsi3+0x34>

0000c980 <__umodsi3>:
    c980:	2005883a 	mov	r2,r4
    c984:	2900122e 	bgeu	r5,r4,c9d0 <__umodsi3+0x50>
    c988:	28001116 	blt	r5,zero,c9d0 <__umodsi3+0x50>
    c98c:	01800804 	movi	r6,32
    c990:	00c00044 	movi	r3,1
    c994:	00000206 	br	c9a0 <__umodsi3+0x20>
    c998:	30000c26 	beq	r6,zero,c9cc <__umodsi3+0x4c>
    c99c:	28000516 	blt	r5,zero,c9b4 <__umodsi3+0x34>
    c9a0:	294b883a 	add	r5,r5,r5
    c9a4:	31bfffc4 	addi	r6,r6,-1
    c9a8:	18c7883a 	add	r3,r3,r3
    c9ac:	293ffa36 	bltu	r5,r4,c998 <__umodsi3+0x18>
    c9b0:	18000626 	beq	r3,zero,c9cc <__umodsi3+0x4c>
    c9b4:	1806d07a 	srli	r3,r3,1
    c9b8:	11400136 	bltu	r2,r5,c9c0 <__umodsi3+0x40>
    c9bc:	1145c83a 	sub	r2,r2,r5
    c9c0:	280ad07a 	srli	r5,r5,1
    c9c4:	183ffb1e 	bne	r3,zero,c9b4 <__umodsi3+0x34>
    c9c8:	f800283a 	ret
    c9cc:	f800283a 	ret
    c9d0:	00c00044 	movi	r3,1
    c9d4:	003ff706 	br	c9b4 <__umodsi3+0x34>

0000c9d8 <__mulsi3>:
    c9d8:	0005883a 	mov	r2,zero
    c9dc:	20000726 	beq	r4,zero,c9fc <__mulsi3+0x24>
    c9e0:	20c0004c 	andi	r3,r4,1
    c9e4:	2008d07a 	srli	r4,r4,1
    c9e8:	18000126 	beq	r3,zero,c9f0 <__mulsi3+0x18>
    c9ec:	1145883a 	add	r2,r2,r5
    c9f0:	294b883a 	add	r5,r5,r5
    c9f4:	203ffa1e 	bne	r4,zero,c9e0 <__mulsi3+0x8>
    c9f8:	f800283a 	ret
    c9fc:	f800283a 	ret

0000ca00 <__errno>:
    ca00:	00800074 	movhi	r2,1
    ca04:	10b56a04 	addi	r2,r2,-10840
    ca08:	10800017 	ldw	r2,0(r2)
    ca0c:	f800283a 	ret

0000ca10 <_printf_r>:
    ca10:	defffd04 	addi	sp,sp,-12
    ca14:	dfc00015 	stw	ra,0(sp)
    ca18:	d9800115 	stw	r6,4(sp)
    ca1c:	d9c00215 	stw	r7,8(sp)
    ca20:	20c00217 	ldw	r3,8(r4)
    ca24:	01800074 	movhi	r6,1
    ca28:	31b41304 	addi	r6,r6,-12212
    ca2c:	19800115 	stw	r6,4(r3)
    ca30:	280d883a 	mov	r6,r5
    ca34:	21400217 	ldw	r5,8(r4)
    ca38:	d9c00104 	addi	r7,sp,4
    ca3c:	000cb040 	call	cb04 <___vfprintf_internal_r>
    ca40:	dfc00017 	ldw	ra,0(sp)
    ca44:	dec00304 	addi	sp,sp,12
    ca48:	f800283a 	ret

0000ca4c <printf>:
    ca4c:	defffc04 	addi	sp,sp,-16
    ca50:	dfc00015 	stw	ra,0(sp)
    ca54:	d9400115 	stw	r5,4(sp)
    ca58:	d9800215 	stw	r6,8(sp)
    ca5c:	d9c00315 	stw	r7,12(sp)
    ca60:	00800074 	movhi	r2,1
    ca64:	10b56a04 	addi	r2,r2,-10840
    ca68:	10800017 	ldw	r2,0(r2)
    ca6c:	01400074 	movhi	r5,1
    ca70:	29741304 	addi	r5,r5,-12212
    ca74:	10c00217 	ldw	r3,8(r2)
    ca78:	d9800104 	addi	r6,sp,4
    ca7c:	19400115 	stw	r5,4(r3)
    ca80:	200b883a 	mov	r5,r4
    ca84:	11000217 	ldw	r4,8(r2)
    ca88:	000d0300 	call	d030 <__vfprintf_internal>
    ca8c:	dfc00017 	ldw	ra,0(sp)
    ca90:	dec00404 	addi	sp,sp,16
    ca94:	f800283a 	ret

0000ca98 <print_repeat>:
    ca98:	defffb04 	addi	sp,sp,-20
    ca9c:	dc800315 	stw	r18,12(sp)
    caa0:	dc400215 	stw	r17,8(sp)
    caa4:	dc000115 	stw	r16,4(sp)
    caa8:	dfc00415 	stw	ra,16(sp)
    caac:	2025883a 	mov	r18,r4
    cab0:	2823883a 	mov	r17,r5
    cab4:	d9800005 	stb	r6,0(sp)
    cab8:	3821883a 	mov	r16,r7
    cabc:	04000a0e 	bge	zero,r16,cae8 <print_repeat+0x50>
    cac0:	88800117 	ldw	r2,4(r17)
    cac4:	01c00044 	movi	r7,1
    cac8:	d80d883a 	mov	r6,sp
    cacc:	880b883a 	mov	r5,r17
    cad0:	9009883a 	mov	r4,r18
    cad4:	103ee83a 	callr	r2
    cad8:	843fffc4 	addi	r16,r16,-1
    cadc:	103ff726 	beq	r2,zero,cabc <print_repeat+0x24>
    cae0:	00bfffc4 	movi	r2,-1
    cae4:	00000106 	br	caec <print_repeat+0x54>
    cae8:	0005883a 	mov	r2,zero
    caec:	dfc00417 	ldw	ra,16(sp)
    caf0:	dc800317 	ldw	r18,12(sp)
    caf4:	dc400217 	ldw	r17,8(sp)
    caf8:	dc000117 	ldw	r16,4(sp)
    cafc:	dec00504 	addi	sp,sp,20
    cb00:	f800283a 	ret

0000cb04 <___vfprintf_internal_r>:
    cb04:	deffe504 	addi	sp,sp,-108
    cb08:	d8c00804 	addi	r3,sp,32
    cb0c:	ddc01815 	stw	r23,96(sp)
    cb10:	dd801715 	stw	r22,92(sp)
    cb14:	dd401615 	stw	r21,88(sp)
    cb18:	dd001515 	stw	r20,84(sp)
    cb1c:	dcc01415 	stw	r19,80(sp)
    cb20:	dc801315 	stw	r18,76(sp)
    cb24:	dc401215 	stw	r17,72(sp)
    cb28:	dc001115 	stw	r16,68(sp)
    cb2c:	dfc01a15 	stw	ra,104(sp)
    cb30:	df001915 	stw	fp,100(sp)
    cb34:	2029883a 	mov	r20,r4
    cb38:	2823883a 	mov	r17,r5
    cb3c:	382d883a 	mov	r22,r7
    cb40:	d9800f15 	stw	r6,60(sp)
    cb44:	0021883a 	mov	r16,zero
    cb48:	d8000e15 	stw	zero,56(sp)
    cb4c:	d8000a15 	stw	zero,40(sp)
    cb50:	002b883a 	mov	r21,zero
    cb54:	0027883a 	mov	r19,zero
    cb58:	0025883a 	mov	r18,zero
    cb5c:	d8000c15 	stw	zero,48(sp)
    cb60:	d8000b15 	stw	zero,44(sp)
    cb64:	002f883a 	mov	r23,zero
    cb68:	d8c00915 	stw	r3,36(sp)
    cb6c:	d8c00f17 	ldw	r3,60(sp)
    cb70:	19000003 	ldbu	r4,0(r3)
    cb74:	20803fcc 	andi	r2,r4,255
    cb78:	1080201c 	xori	r2,r2,128
    cb7c:	10bfe004 	addi	r2,r2,-128
    cb80:	10011e26 	beq	r2,zero,cffc <___vfprintf_internal_r+0x4f8>
    cb84:	00c00044 	movi	r3,1
    cb88:	b8c01426 	beq	r23,r3,cbdc <___vfprintf_internal_r+0xd8>
    cb8c:	1dc00216 	blt	r3,r23,cb98 <___vfprintf_internal_r+0x94>
    cb90:	b8000626 	beq	r23,zero,cbac <___vfprintf_internal_r+0xa8>
    cb94:	00011506 	br	cfec <___vfprintf_internal_r+0x4e8>
    cb98:	01400084 	movi	r5,2
    cb9c:	b9401d26 	beq	r23,r5,cc14 <___vfprintf_internal_r+0x110>
    cba0:	014000c4 	movi	r5,3
    cba4:	b9402b26 	beq	r23,r5,cc54 <___vfprintf_internal_r+0x150>
    cba8:	00011006 	br	cfec <___vfprintf_internal_r+0x4e8>
    cbac:	01400944 	movi	r5,37
    cbb0:	1140fc26 	beq	r2,r5,cfa4 <___vfprintf_internal_r+0x4a0>
    cbb4:	88800117 	ldw	r2,4(r17)
    cbb8:	d9000005 	stb	r4,0(sp)
    cbbc:	01c00044 	movi	r7,1
    cbc0:	d80d883a 	mov	r6,sp
    cbc4:	880b883a 	mov	r5,r17
    cbc8:	a009883a 	mov	r4,r20
    cbcc:	103ee83a 	callr	r2
    cbd0:	1000d81e 	bne	r2,zero,cf34 <___vfprintf_internal_r+0x430>
    cbd4:	84000044 	addi	r16,r16,1
    cbd8:	00010406 	br	cfec <___vfprintf_internal_r+0x4e8>
    cbdc:	01400c04 	movi	r5,48
    cbe0:	1140fa26 	beq	r2,r5,cfcc <___vfprintf_internal_r+0x4c8>
    cbe4:	01400944 	movi	r5,37
    cbe8:	11400a1e 	bne	r2,r5,cc14 <___vfprintf_internal_r+0x110>
    cbec:	d8800005 	stb	r2,0(sp)
    cbf0:	88800117 	ldw	r2,4(r17)
    cbf4:	b80f883a 	mov	r7,r23
    cbf8:	d80d883a 	mov	r6,sp
    cbfc:	880b883a 	mov	r5,r17
    cc00:	a009883a 	mov	r4,r20
    cc04:	103ee83a 	callr	r2
    cc08:	1000ca1e 	bne	r2,zero,cf34 <___vfprintf_internal_r+0x430>
    cc0c:	84000044 	addi	r16,r16,1
    cc10:	0000f506 	br	cfe8 <___vfprintf_internal_r+0x4e4>
    cc14:	25fff404 	addi	r23,r4,-48
    cc18:	bdc03fcc 	andi	r23,r23,255
    cc1c:	00c00244 	movi	r3,9
    cc20:	1dc00936 	bltu	r3,r23,cc48 <___vfprintf_internal_r+0x144>
    cc24:	00bfffc4 	movi	r2,-1
    cc28:	90800426 	beq	r18,r2,cc3c <___vfprintf_internal_r+0x138>
    cc2c:	01400284 	movi	r5,10
    cc30:	9009883a 	mov	r4,r18
    cc34:	000c9d80 	call	c9d8 <__mulsi3>
    cc38:	00000106 	br	cc40 <___vfprintf_internal_r+0x13c>
    cc3c:	0005883a 	mov	r2,zero
    cc40:	b8a5883a 	add	r18,r23,r2
    cc44:	0000e206 	br	cfd0 <___vfprintf_internal_r+0x4cc>
    cc48:	01400b84 	movi	r5,46
    cc4c:	1140e426 	beq	r2,r5,cfe0 <___vfprintf_internal_r+0x4dc>
    cc50:	05c00084 	movi	r23,2
    cc54:	213ff404 	addi	r4,r4,-48
    cc58:	27003fcc 	andi	fp,r4,255
    cc5c:	00c00244 	movi	r3,9
    cc60:	1f000936 	bltu	r3,fp,cc88 <___vfprintf_internal_r+0x184>
    cc64:	00bfffc4 	movi	r2,-1
    cc68:	98800426 	beq	r19,r2,cc7c <___vfprintf_internal_r+0x178>
    cc6c:	01400284 	movi	r5,10
    cc70:	9809883a 	mov	r4,r19
    cc74:	000c9d80 	call	c9d8 <__mulsi3>
    cc78:	00000106 	br	cc80 <___vfprintf_internal_r+0x17c>
    cc7c:	0005883a 	mov	r2,zero
    cc80:	e0a7883a 	add	r19,fp,r2
    cc84:	0000d906 	br	cfec <___vfprintf_internal_r+0x4e8>
    cc88:	00c01b04 	movi	r3,108
    cc8c:	10c0d226 	beq	r2,r3,cfd8 <___vfprintf_internal_r+0x4d4>
    cc90:	013fffc4 	movi	r4,-1
    cc94:	99000226 	beq	r19,r4,cca0 <___vfprintf_internal_r+0x19c>
    cc98:	d8000b15 	stw	zero,44(sp)
    cc9c:	00000106 	br	cca4 <___vfprintf_internal_r+0x1a0>
    cca0:	04c00044 	movi	r19,1
    cca4:	01001a44 	movi	r4,105
    cca8:	11001626 	beq	r2,r4,cd04 <___vfprintf_internal_r+0x200>
    ccac:	20800916 	blt	r4,r2,ccd4 <___vfprintf_internal_r+0x1d0>
    ccb0:	010018c4 	movi	r4,99
    ccb4:	11008826 	beq	r2,r4,ced8 <___vfprintf_internal_r+0x3d4>
    ccb8:	01001904 	movi	r4,100
    ccbc:	11001126 	beq	r2,r4,cd04 <___vfprintf_internal_r+0x200>
    ccc0:	01001604 	movi	r4,88
    ccc4:	1100c81e 	bne	r2,r4,cfe8 <___vfprintf_internal_r+0x4e4>
    ccc8:	00c00044 	movi	r3,1
    cccc:	d8c00e15 	stw	r3,56(sp)
    ccd0:	00001506 	br	cd28 <___vfprintf_internal_r+0x224>
    ccd4:	01001cc4 	movi	r4,115
    ccd8:	11009826 	beq	r2,r4,cf3c <___vfprintf_internal_r+0x438>
    ccdc:	20800416 	blt	r4,r2,ccf0 <___vfprintf_internal_r+0x1ec>
    cce0:	01001bc4 	movi	r4,111
    cce4:	1100c01e 	bne	r2,r4,cfe8 <___vfprintf_internal_r+0x4e4>
    cce8:	05400204 	movi	r21,8
    ccec:	00000f06 	br	cd2c <___vfprintf_internal_r+0x228>
    ccf0:	01001d44 	movi	r4,117
    ccf4:	11000d26 	beq	r2,r4,cd2c <___vfprintf_internal_r+0x228>
    ccf8:	01001e04 	movi	r4,120
    ccfc:	11000a26 	beq	r2,r4,cd28 <___vfprintf_internal_r+0x224>
    cd00:	0000b906 	br	cfe8 <___vfprintf_internal_r+0x4e4>
    cd04:	d8c00a17 	ldw	r3,40(sp)
    cd08:	b7000104 	addi	fp,r22,4
    cd0c:	18000726 	beq	r3,zero,cd2c <___vfprintf_internal_r+0x228>
    cd10:	df000d15 	stw	fp,52(sp)
    cd14:	b5c00017 	ldw	r23,0(r22)
    cd18:	b800080e 	bge	r23,zero,cd3c <___vfprintf_internal_r+0x238>
    cd1c:	05efc83a 	sub	r23,zero,r23
    cd20:	02400044 	movi	r9,1
    cd24:	00000606 	br	cd40 <___vfprintf_internal_r+0x23c>
    cd28:	05400404 	movi	r21,16
    cd2c:	b0c00104 	addi	r3,r22,4
    cd30:	d8c00d15 	stw	r3,52(sp)
    cd34:	b5c00017 	ldw	r23,0(r22)
    cd38:	d8000a15 	stw	zero,40(sp)
    cd3c:	0013883a 	mov	r9,zero
    cd40:	d839883a 	mov	fp,sp
    cd44:	b8001726 	beq	r23,zero,cda4 <___vfprintf_internal_r+0x2a0>
    cd48:	a80b883a 	mov	r5,r21
    cd4c:	b809883a 	mov	r4,r23
    cd50:	da401015 	stw	r9,64(sp)
    cd54:	000c91c0 	call	c91c <__udivsi3>
    cd58:	a80b883a 	mov	r5,r21
    cd5c:	1009883a 	mov	r4,r2
    cd60:	102d883a 	mov	r22,r2
    cd64:	000c9d80 	call	c9d8 <__mulsi3>
    cd68:	b885c83a 	sub	r2,r23,r2
    cd6c:	00c00244 	movi	r3,9
    cd70:	da401017 	ldw	r9,64(sp)
    cd74:	18800216 	blt	r3,r2,cd80 <___vfprintf_internal_r+0x27c>
    cd78:	10800c04 	addi	r2,r2,48
    cd7c:	00000506 	br	cd94 <___vfprintf_internal_r+0x290>
    cd80:	d8c00e17 	ldw	r3,56(sp)
    cd84:	18000226 	beq	r3,zero,cd90 <___vfprintf_internal_r+0x28c>
    cd88:	10800dc4 	addi	r2,r2,55
    cd8c:	00000106 	br	cd94 <___vfprintf_internal_r+0x290>
    cd90:	108015c4 	addi	r2,r2,87
    cd94:	e0800005 	stb	r2,0(fp)
    cd98:	b02f883a 	mov	r23,r22
    cd9c:	e7000044 	addi	fp,fp,1
    cda0:	003fe806 	br	cd44 <___vfprintf_internal_r+0x240>
    cda4:	e6efc83a 	sub	r23,fp,sp
    cda8:	9dc5c83a 	sub	r2,r19,r23
    cdac:	0080090e 	bge	zero,r2,cdd4 <___vfprintf_internal_r+0x2d0>
    cdb0:	e085883a 	add	r2,fp,r2
    cdb4:	01400c04 	movi	r5,48
    cdb8:	d8c00917 	ldw	r3,36(sp)
    cdbc:	e009883a 	mov	r4,fp
    cdc0:	e0c0032e 	bgeu	fp,r3,cdd0 <___vfprintf_internal_r+0x2cc>
    cdc4:	e7000044 	addi	fp,fp,1
    cdc8:	21400005 	stb	r5,0(r4)
    cdcc:	e0bffa1e 	bne	fp,r2,cdb8 <___vfprintf_internal_r+0x2b4>
    cdd0:	e6efc83a 	sub	r23,fp,sp
    cdd4:	d8c00b17 	ldw	r3,44(sp)
    cdd8:	4dd1883a 	add	r8,r9,r23
    cddc:	922dc83a 	sub	r22,r18,r8
    cde0:	18001626 	beq	r3,zero,ce3c <___vfprintf_internal_r+0x338>
    cde4:	48000a26 	beq	r9,zero,ce10 <___vfprintf_internal_r+0x30c>
    cde8:	00800b44 	movi	r2,45
    cdec:	d8800805 	stb	r2,32(sp)
    cdf0:	88800117 	ldw	r2,4(r17)
    cdf4:	01c00044 	movi	r7,1
    cdf8:	d9800804 	addi	r6,sp,32
    cdfc:	880b883a 	mov	r5,r17
    ce00:	a009883a 	mov	r4,r20
    ce04:	103ee83a 	callr	r2
    ce08:	10004a1e 	bne	r2,zero,cf34 <___vfprintf_internal_r+0x430>
    ce0c:	84000044 	addi	r16,r16,1
    ce10:	0580070e 	bge	zero,r22,ce30 <___vfprintf_internal_r+0x32c>
    ce14:	b00f883a 	mov	r7,r22
    ce18:	01800c04 	movi	r6,48
    ce1c:	880b883a 	mov	r5,r17
    ce20:	a009883a 	mov	r4,r20
    ce24:	000ca980 	call	ca98 <print_repeat>
    ce28:	1000421e 	bne	r2,zero,cf34 <___vfprintf_internal_r+0x430>
    ce2c:	85a1883a 	add	r16,r16,r22
    ce30:	e02d883a 	mov	r22,fp
    ce34:	bf2fc83a 	sub	r23,r23,fp
    ce38:	00002006 	br	cebc <___vfprintf_internal_r+0x3b8>
    ce3c:	0580090e 	bge	zero,r22,ce64 <___vfprintf_internal_r+0x360>
    ce40:	b00f883a 	mov	r7,r22
    ce44:	01800804 	movi	r6,32
    ce48:	880b883a 	mov	r5,r17
    ce4c:	a009883a 	mov	r4,r20
    ce50:	da401015 	stw	r9,64(sp)
    ce54:	000ca980 	call	ca98 <print_repeat>
    ce58:	da401017 	ldw	r9,64(sp)
    ce5c:	1000351e 	bne	r2,zero,cf34 <___vfprintf_internal_r+0x430>
    ce60:	85a1883a 	add	r16,r16,r22
    ce64:	483ff226 	beq	r9,zero,ce30 <___vfprintf_internal_r+0x32c>
    ce68:	00800b44 	movi	r2,45
    ce6c:	d8800805 	stb	r2,32(sp)
    ce70:	88800117 	ldw	r2,4(r17)
    ce74:	01c00044 	movi	r7,1
    ce78:	d9800804 	addi	r6,sp,32
    ce7c:	880b883a 	mov	r5,r17
    ce80:	a009883a 	mov	r4,r20
    ce84:	103ee83a 	callr	r2
    ce88:	10002a1e 	bne	r2,zero,cf34 <___vfprintf_internal_r+0x430>
    ce8c:	84000044 	addi	r16,r16,1
    ce90:	003fe706 	br	ce30 <___vfprintf_internal_r+0x32c>
    ce94:	b5bfffc4 	addi	r22,r22,-1
    ce98:	b0800003 	ldbu	r2,0(r22)
    ce9c:	01c00044 	movi	r7,1
    cea0:	d9800804 	addi	r6,sp,32
    cea4:	d8800805 	stb	r2,32(sp)
    cea8:	88800117 	ldw	r2,4(r17)
    ceac:	880b883a 	mov	r5,r17
    ceb0:	a009883a 	mov	r4,r20
    ceb4:	103ee83a 	callr	r2
    ceb8:	10001e1e 	bne	r2,zero,cf34 <___vfprintf_internal_r+0x430>
    cebc:	8585c83a 	sub	r2,r16,r22
    cec0:	b5c9883a 	add	r4,r22,r23
    cec4:	e085883a 	add	r2,fp,r2
    cec8:	013ff216 	blt	zero,r4,ce94 <___vfprintf_internal_r+0x390>
    cecc:	1021883a 	mov	r16,r2
    ced0:	dd800d17 	ldw	r22,52(sp)
    ced4:	00004406 	br	cfe8 <___vfprintf_internal_r+0x4e4>
    ced8:	00800044 	movi	r2,1
    cedc:	1480080e 	bge	r2,r18,cf00 <___vfprintf_internal_r+0x3fc>
    cee0:	95ffffc4 	addi	r23,r18,-1
    cee4:	b80f883a 	mov	r7,r23
    cee8:	01800804 	movi	r6,32
    ceec:	880b883a 	mov	r5,r17
    cef0:	a009883a 	mov	r4,r20
    cef4:	000ca980 	call	ca98 <print_repeat>
    cef8:	10000e1e 	bne	r2,zero,cf34 <___vfprintf_internal_r+0x430>
    cefc:	85e1883a 	add	r16,r16,r23
    cf00:	b0800017 	ldw	r2,0(r22)
    cf04:	01c00044 	movi	r7,1
    cf08:	d80d883a 	mov	r6,sp
    cf0c:	d8800005 	stb	r2,0(sp)
    cf10:	88800117 	ldw	r2,4(r17)
    cf14:	880b883a 	mov	r5,r17
    cf18:	a009883a 	mov	r4,r20
    cf1c:	b5c00104 	addi	r23,r22,4
    cf20:	103ee83a 	callr	r2
    cf24:	1000031e 	bne	r2,zero,cf34 <___vfprintf_internal_r+0x430>
    cf28:	84000044 	addi	r16,r16,1
    cf2c:	b82d883a 	mov	r22,r23
    cf30:	00002d06 	br	cfe8 <___vfprintf_internal_r+0x4e4>
    cf34:	00bfffc4 	movi	r2,-1
    cf38:	00003106 	br	d000 <___vfprintf_internal_r+0x4fc>
    cf3c:	b5c00017 	ldw	r23,0(r22)
    cf40:	b7000104 	addi	fp,r22,4
    cf44:	b809883a 	mov	r4,r23
    cf48:	000d1040 	call	d104 <strlen>
    cf4c:	9091c83a 	sub	r8,r18,r2
    cf50:	102d883a 	mov	r22,r2
    cf54:	0200090e 	bge	zero,r8,cf7c <___vfprintf_internal_r+0x478>
    cf58:	400f883a 	mov	r7,r8
    cf5c:	01800804 	movi	r6,32
    cf60:	880b883a 	mov	r5,r17
    cf64:	a009883a 	mov	r4,r20
    cf68:	da001015 	stw	r8,64(sp)
    cf6c:	000ca980 	call	ca98 <print_repeat>
    cf70:	da001017 	ldw	r8,64(sp)
    cf74:	103fef1e 	bne	r2,zero,cf34 <___vfprintf_internal_r+0x430>
    cf78:	8221883a 	add	r16,r16,r8
    cf7c:	88800117 	ldw	r2,4(r17)
    cf80:	b00f883a 	mov	r7,r22
    cf84:	b80d883a 	mov	r6,r23
    cf88:	880b883a 	mov	r5,r17
    cf8c:	a009883a 	mov	r4,r20
    cf90:	103ee83a 	callr	r2
    cf94:	103fe71e 	bne	r2,zero,cf34 <___vfprintf_internal_r+0x430>
    cf98:	85a1883a 	add	r16,r16,r22
    cf9c:	e02d883a 	mov	r22,fp
    cfa0:	00001106 	br	cfe8 <___vfprintf_internal_r+0x4e4>
    cfa4:	00c00044 	movi	r3,1
    cfa8:	04ffffc4 	movi	r19,-1
    cfac:	d8000e15 	stw	zero,56(sp)
    cfb0:	d8c00a15 	stw	r3,40(sp)
    cfb4:	05400284 	movi	r21,10
    cfb8:	9825883a 	mov	r18,r19
    cfbc:	d8000c15 	stw	zero,48(sp)
    cfc0:	d8000b15 	stw	zero,44(sp)
    cfc4:	182f883a 	mov	r23,r3
    cfc8:	00000806 	br	cfec <___vfprintf_internal_r+0x4e8>
    cfcc:	ddc00b15 	stw	r23,44(sp)
    cfd0:	05c00084 	movi	r23,2
    cfd4:	00000506 	br	cfec <___vfprintf_internal_r+0x4e8>
    cfd8:	00c00044 	movi	r3,1
    cfdc:	d8c00c15 	stw	r3,48(sp)
    cfe0:	05c000c4 	movi	r23,3
    cfe4:	00000106 	br	cfec <___vfprintf_internal_r+0x4e8>
    cfe8:	002f883a 	mov	r23,zero
    cfec:	d8c00f17 	ldw	r3,60(sp)
    cff0:	18c00044 	addi	r3,r3,1
    cff4:	d8c00f15 	stw	r3,60(sp)
    cff8:	003edc06 	br	cb6c <___vfprintf_internal_r+0x68>
    cffc:	8005883a 	mov	r2,r16
    d000:	dfc01a17 	ldw	ra,104(sp)
    d004:	df001917 	ldw	fp,100(sp)
    d008:	ddc01817 	ldw	r23,96(sp)
    d00c:	dd801717 	ldw	r22,92(sp)
    d010:	dd401617 	ldw	r21,88(sp)
    d014:	dd001517 	ldw	r20,84(sp)
    d018:	dcc01417 	ldw	r19,80(sp)
    d01c:	dc801317 	ldw	r18,76(sp)
    d020:	dc401217 	ldw	r17,72(sp)
    d024:	dc001117 	ldw	r16,68(sp)
    d028:	dec01b04 	addi	sp,sp,108
    d02c:	f800283a 	ret

0000d030 <__vfprintf_internal>:
    d030:	00800074 	movhi	r2,1
    d034:	10b56a04 	addi	r2,r2,-10840
    d038:	300f883a 	mov	r7,r6
    d03c:	280d883a 	mov	r6,r5
    d040:	200b883a 	mov	r5,r4
    d044:	11000017 	ldw	r4,0(r2)
    d048:	000cb041 	jmpi	cb04 <___vfprintf_internal_r>

0000d04c <__sfvwrite_small_dev>:
    d04c:	2880000b 	ldhu	r2,0(r5)
    d050:	1080020c 	andi	r2,r2,8
    d054:	10002126 	beq	r2,zero,d0dc <__sfvwrite_small_dev+0x90>
    d058:	2880008f 	ldh	r2,2(r5)
    d05c:	defffa04 	addi	sp,sp,-24
    d060:	dc000015 	stw	r16,0(sp)
    d064:	dfc00515 	stw	ra,20(sp)
    d068:	dd000415 	stw	r20,16(sp)
    d06c:	dcc00315 	stw	r19,12(sp)
    d070:	dc800215 	stw	r18,8(sp)
    d074:	dc400115 	stw	r17,4(sp)
    d078:	2821883a 	mov	r16,r5
    d07c:	10001216 	blt	r2,zero,d0c8 <__sfvwrite_small_dev+0x7c>
    d080:	2027883a 	mov	r19,r4
    d084:	3025883a 	mov	r18,r6
    d088:	3823883a 	mov	r17,r7
    d08c:	05010004 	movi	r20,1024
    d090:	04400b0e 	bge	zero,r17,d0c0 <__sfvwrite_small_dev+0x74>
    d094:	880f883a 	mov	r7,r17
    d098:	a440010e 	bge	r20,r17,d0a0 <__sfvwrite_small_dev+0x54>
    d09c:	01c10004 	movi	r7,1024
    d0a0:	8140008f 	ldh	r5,2(r16)
    d0a4:	900d883a 	mov	r6,r18
    d0a8:	9809883a 	mov	r4,r19
    d0ac:	000d1200 	call	d120 <_write_r>
    d0b0:	0080050e 	bge	zero,r2,d0c8 <__sfvwrite_small_dev+0x7c>
    d0b4:	88a3c83a 	sub	r17,r17,r2
    d0b8:	90a5883a 	add	r18,r18,r2
    d0bc:	003ff406 	br	d090 <__sfvwrite_small_dev+0x44>
    d0c0:	0005883a 	mov	r2,zero
    d0c4:	00000706 	br	d0e4 <__sfvwrite_small_dev+0x98>
    d0c8:	8080000b 	ldhu	r2,0(r16)
    d0cc:	10801014 	ori	r2,r2,64
    d0d0:	8080000d 	sth	r2,0(r16)
    d0d4:	00bfffc4 	movi	r2,-1
    d0d8:	00000206 	br	d0e4 <__sfvwrite_small_dev+0x98>
    d0dc:	00bfffc4 	movi	r2,-1
    d0e0:	f800283a 	ret
    d0e4:	dfc00517 	ldw	ra,20(sp)
    d0e8:	dd000417 	ldw	r20,16(sp)
    d0ec:	dcc00317 	ldw	r19,12(sp)
    d0f0:	dc800217 	ldw	r18,8(sp)
    d0f4:	dc400117 	ldw	r17,4(sp)
    d0f8:	dc000017 	ldw	r16,0(sp)
    d0fc:	dec00604 	addi	sp,sp,24
    d100:	f800283a 	ret

0000d104 <strlen>:
    d104:	2005883a 	mov	r2,r4
    d108:	10c00007 	ldb	r3,0(r2)
    d10c:	18000226 	beq	r3,zero,d118 <strlen+0x14>
    d110:	10800044 	addi	r2,r2,1
    d114:	003ffc06 	br	d108 <strlen+0x4>
    d118:	1105c83a 	sub	r2,r2,r4
    d11c:	f800283a 	ret

0000d120 <_write_r>:
    d120:	defffd04 	addi	sp,sp,-12
    d124:	dc000015 	stw	r16,0(sp)
    d128:	04000074 	movhi	r16,1
    d12c:	dc400115 	stw	r17,4(sp)
    d130:	8435ac04 	addi	r16,r16,-10576
    d134:	2023883a 	mov	r17,r4
    d138:	2809883a 	mov	r4,r5
    d13c:	300b883a 	mov	r5,r6
    d140:	380d883a 	mov	r6,r7
    d144:	dfc00215 	stw	ra,8(sp)
    d148:	80000015 	stw	zero,0(r16)
    d14c:	000d2bc0 	call	d2bc <write>
    d150:	00ffffc4 	movi	r3,-1
    d154:	10c0031e 	bne	r2,r3,d164 <_write_r+0x44>
    d158:	80c00017 	ldw	r3,0(r16)
    d15c:	18000126 	beq	r3,zero,d164 <_write_r+0x44>
    d160:	88c00015 	stw	r3,0(r17)
    d164:	dfc00217 	ldw	ra,8(sp)
    d168:	dc400117 	ldw	r17,4(sp)
    d16c:	dc000017 	ldw	r16,0(sp)
    d170:	dec00304 	addi	sp,sp,12
    d174:	f800283a 	ret

0000d178 <alt_load>:
 * there is no bootloader, so this application is responsible for loading to
 * RAM any sections that are required.
 */  

void alt_load (void)
{
    d178:	deffff04 	addi	sp,sp,-4
    d17c:	01000074 	movhi	r4,1
    d180:	01400074 	movhi	r5,1
    d184:	dfc00015 	stw	ra,0(sp)
    d188:	21353004 	addi	r4,r4,-11072
    d18c:	29756d04 	addi	r5,r5,-10828

static void ALT_INLINE alt_load_section (alt_u32* from, 
                                         alt_u32* to, 
                                         alt_u32* end)
{
  if (to != from)
    d190:	2140061e 	bne	r4,r5,d1ac <alt_load+0x34>
    d194:	01000074 	movhi	r4,1
    d198:	01400074 	movhi	r5,1
    d19c:	21200804 	addi	r4,r4,-32736
    d1a0:	29600804 	addi	r5,r5,-32736
    d1a4:	2140121e 	bne	r4,r5,d1f0 <alt_load+0x78>
    d1a8:	00000b06 	br	d1d8 <alt_load+0x60>
    d1ac:	00c00074 	movhi	r3,1
    d1b0:	18f56d04 	addi	r3,r3,-10828
    d1b4:	1907c83a 	sub	r3,r3,r4
    d1b8:	0005883a 	mov	r2,zero
  {
    while( to != end )
    d1bc:	10fff526 	beq	r2,r3,d194 <alt_load+0x1c>
    {
      *to++ = *from++;
    d1c0:	114f883a 	add	r7,r2,r5
    d1c4:	39c00017 	ldw	r7,0(r7)
    d1c8:	110d883a 	add	r6,r2,r4
    d1cc:	10800104 	addi	r2,r2,4
    d1d0:	31c00015 	stw	r7,0(r6)
    d1d4:	003ff906 	br	d1bc <alt_load+0x44>
    d1d8:	01000074 	movhi	r4,1
    d1dc:	01400074 	movhi	r5,1
    d1e0:	2134e104 	addi	r4,r4,-11388
    d1e4:	2974e104 	addi	r5,r5,-11388

static void ALT_INLINE alt_load_section (alt_u32* from, 
                                         alt_u32* to, 
                                         alt_u32* end)
{
  if (to != from)
    d1e8:	2140101e 	bne	r4,r5,d22c <alt_load+0xb4>
    d1ec:	00000b06 	br	d21c <alt_load+0xa4>
    d1f0:	00c00074 	movhi	r3,1
    d1f4:	18e00804 	addi	r3,r3,-32736
    d1f8:	1907c83a 	sub	r3,r3,r4
    d1fc:	0005883a 	mov	r2,zero
  {
    while( to != end )
    d200:	10fff526 	beq	r2,r3,d1d8 <alt_load+0x60>
    {
      *to++ = *from++;
    d204:	114f883a 	add	r7,r2,r5
    d208:	39c00017 	ldw	r7,0(r7)
    d20c:	110d883a 	add	r6,r2,r4
    d210:	10800104 	addi	r2,r2,4
    d214:	31c00015 	stw	r7,0(r6)
    d218:	003ff906 	br	d200 <alt_load+0x88>
  
  /*
   * Now ensure that the caches are in synch.
   */
  
  alt_dcache_flush_all();
    d21c:	000d3740 	call	d374 <alt_dcache_flush_all>
  alt_icache_flush_all();
}
    d220:	dfc00017 	ldw	ra,0(sp)
    d224:	dec00104 	addi	sp,sp,4
  /*
   * Now ensure that the caches are in synch.
   */
  
  alt_dcache_flush_all();
  alt_icache_flush_all();
    d228:	000d3781 	jmpi	d378 <alt_icache_flush_all>
    d22c:	00c00074 	movhi	r3,1
    d230:	18f53004 	addi	r3,r3,-11072
    d234:	1907c83a 	sub	r3,r3,r4

static void ALT_INLINE alt_load_section (alt_u32* from, 
                                         alt_u32* to, 
                                         alt_u32* end)
{
  if (to != from)
    d238:	0005883a 	mov	r2,zero
  {
    while( to != end )
    d23c:	18bff726 	beq	r3,r2,d21c <alt_load+0xa4>
    {
      *to++ = *from++;
    d240:	114f883a 	add	r7,r2,r5
    d244:	39c00017 	ldw	r7,0(r7)
    d248:	110d883a 	add	r6,r2,r4
    d24c:	10800104 	addi	r2,r2,4
    d250:	31c00015 	stw	r7,0(r6)
    d254:	003ff906 	br	d23c <alt_load+0xc4>

0000d258 <alt_main>:
 * devices/filesystems/components in the system; and call the entry point for
 * the users application, i.e. main().
 */

void alt_main (void)
{
    d258:	deffff04 	addi	sp,sp,-4
#endif

  /* ALT LOG - please see HAL/sys/alt_log_printf.h for details */
  ALT_LOG_PRINT_BOOT("[alt_main.c] Entering alt_main, calling alt_irq_init.\r\n");
  /* Initialize the interrupt controller. */
  alt_irq_init (NULL);
    d25c:	0009883a 	mov	r4,zero
 * devices/filesystems/components in the system; and call the entry point for
 * the users application, i.e. main().
 */

void alt_main (void)
{
    d260:	dfc00015 	stw	ra,0(sp)
#endif

  /* ALT LOG - please see HAL/sys/alt_log_printf.h for details */
  ALT_LOG_PRINT_BOOT("[alt_main.c] Entering alt_main, calling alt_irq_init.\r\n");
  /* Initialize the interrupt controller. */
  alt_irq_init (NULL);
    d264:	000d31c0 	call	d31c <alt_irq_init>
  ALT_LOG_PRINT_BOOT("[alt_main.c] Done OS Init, calling alt_sem_create.\r\n");
  ALT_SEM_CREATE (&alt_fd_list_lock, 1);

  /* Initialize the device drivers/software components. */
  ALT_LOG_PRINT_BOOT("[alt_main.c] Calling alt_sys_init.\r\n");
  alt_sys_init();
    d268:	000d33c0 	call	d33c <alt_sys_init>
   */

  ALT_LOG_PRINT_BOOT("[alt_main.c] Calling main.\r\n");

#ifdef ALT_NO_EXIT
  main (alt_argc, alt_argv, alt_envp);
    d26c:	d1a04517 	ldw	r6,-32492(gp)
    d270:	d1604617 	ldw	r5,-32488(gp)
    d274:	d1204717 	ldw	r4,-32484(gp)
  close(STDOUT_FILENO);
  exit (result);
#endif

  ALT_LOG_PRINT_BOOT("[alt_main.c] After main - we should not be here?.\r\n");
}
    d278:	dfc00017 	ldw	ra,0(sp)
    d27c:	dec00104 	addi	sp,sp,4
   */

  ALT_LOG_PRINT_BOOT("[alt_main.c] Calling main.\r\n");

#ifdef ALT_NO_EXIT
  main (alt_argc, alt_argv, alt_envp);
    d280:	00082141 	jmpi	8214 <main>

0000d284 <alt_putstr>:
 * Uses the ALT_DRIVER_WRITE() macro to call directly to driver if available.
 * Otherwise, uses newlib provided fputs() routine.
 */
int 
alt_putstr(const char* str)
{
    d284:	defffe04 	addi	sp,sp,-8
    d288:	dc000015 	stw	r16,0(sp)
    d28c:	dfc00115 	stw	ra,4(sp)
    d290:	2021883a 	mov	r16,r4
#ifdef ALT_SEMIHOSTING
    return write(STDOUT_FILENO,str,strlen(str));
#else
#ifdef ALT_USE_DIRECT_DRIVERS
    ALT_DRIVER_WRITE_EXTERNS(ALT_STDOUT_DEV);
    return ALT_DRIVER_WRITE(ALT_STDOUT_DEV, str, strlen(str), 0);
    d294:	000d1040 	call	d104 <strlen>
    d298:	01000074 	movhi	r4,1
    d29c:	000f883a 	mov	r7,zero
    d2a0:	100d883a 	mov	r6,r2
    d2a4:	800b883a 	mov	r5,r16
    d2a8:	21356b04 	addi	r4,r4,-10836
#else
    return fputs(str, stdout);
#endif
#endif
}
    d2ac:	dfc00117 	ldw	ra,4(sp)
    d2b0:	dc000017 	ldw	r16,0(sp)
    d2b4:	dec00204 	addi	sp,sp,8
#ifdef ALT_SEMIHOSTING
    return write(STDOUT_FILENO,str,strlen(str));
#else
#ifdef ALT_USE_DIRECT_DRIVERS
    ALT_DRIVER_WRITE_EXTERNS(ALT_STDOUT_DEV);
    return ALT_DRIVER_WRITE(ALT_STDOUT_DEV, str, strlen(str), 0);
    d2b8:	000d3401 	jmpi	d340 <altera_avalon_jtag_uart_write>

0000d2bc <write>:
#if !defined(ALT_STDOUT_PRESENT) && !defined(ALT_STDERR_PRESENT)
    /* Generate a link time warning, should this function ever be called. */
    ALT_STUB_WARNING(write);
#endif

    switch (file) {
    d2bc:	00800044 	movi	r2,1
    d2c0:	20800226 	beq	r4,r2,d2cc <write+0x10>
    d2c4:	00800084 	movi	r2,2
    d2c8:	2080041e 	bne	r4,r2,d2dc <write+0x20>
    case 1: /* stdout file descriptor */
        return ALT_DRIVER_WRITE(ALT_STDOUT_DEV, ptr, len, 0);
#endif /* ALT_STDOUT_PRESENT */
#ifdef ALT_STDERR_PRESENT
    case 2: /* stderr file descriptor */
        return ALT_DRIVER_WRITE(ALT_STDERR_DEV, ptr, len, 0);
    d2cc:	01000074 	movhi	r4,1
    d2d0:	000f883a 	mov	r7,zero
    d2d4:	21356b04 	addi	r4,r4,-10836
    d2d8:	000d3401 	jmpi	d340 <altera_avalon_jtag_uart_write>

extern int errno;

static ALT_INLINE int* alt_get_errno(void)
{
  return ((alt_errno) ? alt_errno() : &errno);
    d2dc:	d0a00417 	ldw	r2,-32752(gp)
    d2e0:	10000926 	beq	r2,zero,d308 <write+0x4c>
 * Provide minimal version that just writes to the stdout/stderr devices
 * when provided.
 */

int ALT_WRITE (int file, const void *ptr, size_t len)
{
    d2e4:	deffff04 	addi	sp,sp,-4
    d2e8:	dfc00015 	stw	ra,0(sp)
    d2ec:	103ee83a 	callr	r2
#ifdef ALT_STDERR_PRESENT
    case 2: /* stderr file descriptor */
        return ALT_DRIVER_WRITE(ALT_STDERR_DEV, ptr, len, 0);
#endif /* ALT_STDERR_PRESENT */
    default:
        ALT_ERRNO = EBADFD;
    d2f0:	00c01444 	movi	r3,81
    d2f4:	10c00015 	stw	r3,0(r2)
        return -1;
    }
}
    d2f8:	00bfffc4 	movi	r2,-1
    d2fc:	dfc00017 	ldw	ra,0(sp)
    d300:	dec00104 	addi	sp,sp,4
    d304:	f800283a 	ret
    d308:	d0a04404 	addi	r2,gp,-32496
#ifdef ALT_STDERR_PRESENT
    case 2: /* stderr file descriptor */
        return ALT_DRIVER_WRITE(ALT_STDERR_DEV, ptr, len, 0);
#endif /* ALT_STDERR_PRESENT */
    default:
        ALT_ERRNO = EBADFD;
    d30c:	00c01444 	movi	r3,81
    d310:	10c00015 	stw	r3,0(r2)
        return -1;
    }
}
    d314:	00bfffc4 	movi	r2,-1
    d318:	f800283a 	ret

0000d31c <alt_irq_init>:
 * The "base" parameter is ignored and only
 * present for backwards-compatibility.
 */

void alt_irq_init ( const void* base )
{
    d31c:	deffff04 	addi	sp,sp,-4
    d320:	dfc00015 	stw	ra,0(sp)
    ALTERA_NIOS2_GEN2_IRQ_INIT ( NIOS2_GEN2_0, nios2_gen2_0);
    d324:	000d37c0 	call	d37c <altera_nios2_gen2_irq_init>
 * alt_irq_cpu_enable_interrupts() enables the CPU to start taking interrupts.
 */
static ALT_INLINE void ALT_ALWAYS_INLINE 
       alt_irq_cpu_enable_interrupts (void)
{
    NIOS2_WRITE_STATUS(NIOS2_STATUS_PIE_MSK
    d328:	00800044 	movi	r2,1
    d32c:	1001703a 	wrctl	status,r2
    alt_irq_cpu_enable_interrupts();
}
    d330:	dfc00017 	ldw	ra,0(sp)
    d334:	dec00104 	addi	sp,sp,4
    d338:	f800283a 	ret

0000d33c <alt_sys_init>:
 * Initialize the non-interrupt controller devices.
 * Called after alt_irq_init().
 */

void alt_sys_init( void )
{
    d33c:	f800283a 	ret

0000d340 <altera_avalon_jtag_uart_write>:
 */

int altera_avalon_jtag_uart_write(altera_avalon_jtag_uart_state* sp, 
  const char * ptr, int count, int flags)
{
  unsigned int base = sp->base;
    d340:	21000017 	ldw	r4,0(r4)
 * one FIFOs worth of data.  But you said you didn't want to use interrupts :-)
 */

int altera_avalon_jtag_uart_write(altera_avalon_jtag_uart_state* sp, 
  const char * ptr, int count, int flags)
{
    d344:	3005883a 	mov	r2,r6
  unsigned int base = sp->base;

  const char * end = ptr + count;
    d348:	298d883a 	add	r6,r5,r6

  while (ptr < end)
    if ((IORD_ALTERA_AVALON_JTAG_UART_CONTROL(base) & ALTERA_AVALON_JTAG_UART_CONTROL_WSPACE_MSK) != 0)
    d34c:	21c00104 	addi	r7,r4,4
{
  unsigned int base = sp->base;

  const char * end = ptr + count;

  while (ptr < end)
    d350:	2980072e 	bgeu	r5,r6,d370 <altera_avalon_jtag_uart_write+0x30>
    if ((IORD_ALTERA_AVALON_JTAG_UART_CONTROL(base) & ALTERA_AVALON_JTAG_UART_CONTROL_WSPACE_MSK) != 0)
    d354:	38c00037 	ldwio	r3,0(r7)
    d358:	18ffffec 	andhi	r3,r3,65535
    d35c:	183ffc26 	beq	r3,zero,d350 <altera_avalon_jtag_uart_write+0x10>
      IOWR_ALTERA_AVALON_JTAG_UART_DATA(base, *ptr++);
    d360:	28c00007 	ldb	r3,0(r5)
    d364:	20c00035 	stwio	r3,0(r4)
    d368:	29400044 	addi	r5,r5,1
    d36c:	003ff806 	br	d350 <altera_avalon_jtag_uart_write+0x10>

  return count;
}
    d370:	f800283a 	ret

0000d374 <alt_dcache_flush_all>:
/*
 * alt_dcache_flush_all() is called to flush the entire data cache.
 */

void alt_dcache_flush_all (void)
{
    d374:	f800283a 	ret

0000d378 <alt_icache_flush_all>:
/*
 * alt_icache_flush_all() is called to flush the entire instruction cache.
 */

void alt_icache_flush_all (void)
{
    d378:	f800283a 	ret

0000d37c <altera_nios2_gen2_irq_init>:
 * To initialize the internal interrupt controller, just clear the IENABLE
 * register so that all possible IRQs are disabled.
 */
void altera_nios2_gen2_irq_init(void) 
{
    NIOS2_WRITE_IENABLE(0);
    d37c:	000170fa 	wrctl	ienable,zero
    d380:	f800283a 	ret
